

Microchip MPLAB XC8 Assembler V2.35 build 20211206165544 
                                                                                               Tue Mar 01 17:21:02 2022

Microchip MPLAB XC8 C Compiler v2.35 (Free license) build 20211206165544 Og1 
     1                           	processor	18F47K40
     2                           	fnconf	rparam,??,?,0
     3                           	pagewidth 120
     4                           	opt	flic
     5                           	psect	idataBANK2,global,class=CODE,delta=1,noexec
     6                           	psect	idataBANK3,global,class=CODE,delta=1,noexec
     7                           	psect	idataBANK4,global,class=CODE,delta=1,noexec
     8                           	psect	idataBANK5,global,class=CODE,delta=1,noexec
     9                           	psect	smallconst,global,reloc=2,class=SMALLCONST,delta=1,noexec
    10                           	psect	nvCOMRAM,global,class=COMRAM,space=1,delta=1,lowdata,noexec
    11                           	psect	cinit,global,reloc=2,class=CODE,delta=1
    12                           	psect	bssCOMRAM,global,class=COMRAM,space=1,delta=1,lowdata,noexec
    13                           	psect	bssBANK1,global,class=BANK1,space=1,delta=1,lowdata,noexec
    14                           	psect	dataBANK2,global,class=BANK2,space=1,delta=1,lowdata,noexec
    15                           	psect	dataBANK3,global,class=BANK3,space=1,delta=1,lowdata,noexec
    16                           	psect	dataBANK4,global,class=BANK4,space=1,delta=1,lowdata,noexec
    17                           	psect	dataBANK5,global,class=BANK5,space=1,delta=1,lowdata,noexec
    18                           	psect	cstackCOMRAM,global,class=COMRAM,space=1,delta=1,lowdata,noexec
    19                           	psect	text0,global,reloc=2,class=CODE,delta=1
    20                           	psect	text1,global,reloc=2,class=CODE,delta=1
    21                           	psect	text2,global,reloc=2,class=CODE,delta=1
    22                           	psect	text3,global,reloc=2,class=CODE,delta=1
    23                           	psect	text4,global,reloc=2,class=CODE,delta=1
    24                           	psect	text5,global,reloc=2,class=CODE,delta=1
    25                           	psect	text6,global,reloc=2,class=CODE,delta=1
    26                           	psect	text7,global,reloc=2,class=CODE,delta=1
    27                           	psect	text8,global,reloc=2,class=CODE,delta=1
    28                           	psect	text9,global,reloc=2,class=CODE,delta=1
    29                           	psect	text10,global,reloc=2,class=CODE,delta=1
    30                           	psect	text11,global,reloc=2,class=CODE,delta=1
    31                           	psect	text12,global,reloc=2,class=CODE,delta=1
    32                           	psect	text13,global,reloc=2,class=CODE,delta=1,group=1
    33                           	psect	text14,global,reloc=2,class=CODE,delta=1,group=1
    34                           	psect	text15,global,reloc=2,class=CODE,delta=1,group=1
    35                           	psect	text16,global,reloc=2,class=CODE,delta=1
    36                           	psect	text17,global,reloc=2,class=CODE,delta=1
    37                           	psect	intcode,global,reloc=2,class=CODE,delta=1
    38                           	psect	text19,global,reloc=2,class=CODE,delta=1
    39                           	psect	text20,global,reloc=2,class=CODE,delta=1
    40                           	psect	intsave_regs,global,class=BIGRAM,space=1,delta=1,noexec
    41                           	psect	text21,global,reloc=2,class=CODE,delta=1
    42                           	psect	rparam,global,class=COMRAM,space=1,delta=1,noexec
    43                           	psect	temp,global,ovrld,common,class=COMRAM,space=1,delta=1
    44                           	psect	idloc,global,abs,ovrld,class=IDLOC,space=5,delta=1,noexec
    45                           	psect	config,global,abs,ovrld,class=CONFIG,space=4,delta=1,noexec
    46  0000                     
    47                           ; Version 2.35
    48                           ; Generated 05/05/2021 GMT
    49                           ; 
    50                           ; Copyright © 2021, Microchip Technology Inc. and its subsidiaries ("Microchip")
    51                           ; All rights reserved.
    52                           ; 
    53                           ; This software is developed by Microchip Technology Inc. and its subsidiaries ("Microch
      +                          ip").
    54                           ; 
    55                           ; Redistribution and use in source and binary forms, with or without modification, are
    56                           ; permitted provided that the following conditions are met:
    57                           ; 
    58                           ;     1. Redistributions of source code must retain the above copyright notice, this lis
      +                          t of
    59                           ;        conditions and the following disclaimer.
    60                           ; 
    61                           ;     2. Redistributions in binary form must reproduce the above copyright notice, this 
      +                          list
    62                           ;        of conditions and the following disclaimer in the documentation and/or other
    63                           ;        materials provided with the distribution. Publication is not required when
    64                           ;        this file is used in an embedded application.
    65                           ; 
    66                           ;     3. Microchip's name may not be used to endorse or promote products derived from th
      +                          is
    67                           ;        software without specific prior written permission.
    68                           ; 
    69                           ; THIS SOFTWARE IS PROVIDED BY MICROCHIP "AS IS" AND ANY EXPRESS OR IMPLIED WARRANTIES,
    70                           ; INCLUDING, BUT NOT LIMITED TO, THE IMPLIED WARRANTIES OF MERCHANTABILITY AND FITNESS F
      +                          OR
    71                           ; PURPOSE ARE DISCLAIMED.  IN NO EVENT SHALL MICROCHIP BE LIABLE FOR ANY DIRECT, INDIREC
      +                          T,
    72                           ; INCIDENTAL, SPECIAL, EXEMPLARY, OR CONSEQUENTIAL DAMAGES (INCLUDING BUT NOT LIMITED TO
    73                           ; PROCUREMENT OF SUBSTITUTE GOODS OR SERVICES; LOSS OF USE, DATA OR PROFITS; OR BUSINESS
    74                           ; INTERRUPTION) HOWSOEVER CAUSED AND ON ANY THEORY OF LIABILITY, WHETHER IN CONTRACT, ST
      +                          RICT
    75                           ; LIABILITY, OR TORT (INCLUDING NEGLIGENCE OR OTHERWISE) ARISING IN ANY WAY OUT OF THE U
      +                          SE OF
    76                           ; THIS SOFTWARE, EVEN IF ADVISED OF THE POSSIBILITY OF SUCH DAMAGE.
    77                           ; 
    78                           ; 
    79                           ; Code-generator required, PIC18F47K40 Definitions
    80                           ; 
    81                           ; SFR Addresses
    82  0000                     
    83                           	psect	idataBANK2
    84  001882                     __pidataBANK2:
    85                           	callstack 0
    86                           
    87                           ;initializer for _sine
    88  001882  0200               	dw	512
    89  001884  0220               	dw	544
    90  001886  0240               	dw	576
    91  001888  025F               	dw	607
    92  00188A  027F               	dw	639
    93  00188C  029E               	dw	670
    94  00188E  02BC               	dw	700
    95  001890  02D9               	dw	729
    96  001892  02F6               	dw	758
    97  001894  0312               	dw	786
    98  001896  032C               	dw	812
    99  001898  0346               	dw	838
   100  00189A  035E               	dw	862
   101  00189C  0374               	dw	884
   102  00189E  038A               	dw	906
   103  0018A0  039D               	dw	925
   104  0018A2  03AF               	dw	943
   105  0018A4  03C0               	dw	960
   106  0018A6  03CE               	dw	974
   107  0018A8  03DB               	dw	987
   108  0018AA  03E6               	dw	998
   109  0018AC  03EF               	dw	1007
   110  0018AE  03F6               	dw	1014
   111  0018B0  03FB               	dw	1019
   112  0018B2  03FE               	dw	1022
   113  0018B4  03FF               	dw	1023
   114  0018B6  03FE               	dw	1022
   115  0018B8  03FB               	dw	1019
   116  0018BA  03F6               	dw	1014
   117  0018BC  03EF               	dw	1007
   118  0018BE  03E6               	dw	998
   119  0018C0  03DB               	dw	987
   120  0018C2  03CE               	dw	974
   121  0018C4  03C0               	dw	960
   122  0018C6  03AF               	dw	943
   123  0018C8  039D               	dw	925
   124  0018CA  038A               	dw	906
   125  0018CC  0374               	dw	884
   126  0018CE  035E               	dw	862
   127  0018D0  0346               	dw	838
   128  0018D2  032C               	dw	812
   129  0018D4  0312               	dw	786
   130  0018D6  02F6               	dw	758
   131  0018D8  02D9               	dw	729
   132  0018DA  02BC               	dw	700
   133  0018DC  029E               	dw	670
   134  0018DE  027F               	dw	639
   135  0018E0  025F               	dw	607
   136  0018E2  0240               	dw	576
   137  0018E4  0220               	dw	544
   138  0018E6  0200               	dw	512
   139  0018E8  01DF               	dw	479
   140  0018EA  01BF               	dw	447
   141  0018EC  01A0               	dw	416
   142  0018EE  0180               	dw	384
   143  0018F0  0161               	dw	353
   144  0018F2  0143               	dw	323
   145  0018F4  0126               	dw	294
   146  0018F6  0109               	dw	265
   147  0018F8  00ED               	dw	237
   148  0018FA  00D3               	dw	211
   149  0018FC  00B9               	dw	185
   150  0018FE  00A1               	dw	161
   151  001900  008B               	dw	139
   152  001902  0075               	dw	117
   153  001904  0062               	dw	98
   154  001906  0050               	dw	80
   155  001908  003F               	dw	63
   156  00190A  0031               	dw	49
   157  00190C  0024               	dw	36
   158  00190E  0019               	dw	25
   159  001910  0010               	dw	16
   160  001912  0009               	dw	9
   161  001914  0004               	dw	4
   162  001916  0001               	dw	1
   163  001918  0000               	dw	0
   164  00191A  0001               	dw	1
   165  00191C  0004               	dw	4
   166  00191E  0009               	dw	9
   167  001920  0010               	dw	16
   168  001922  0019               	dw	25
   169  001924  0024               	dw	36
   170  001926  0031               	dw	49
   171  001928  003F               	dw	63
   172  00192A  0050               	dw	80
   173  00192C  0062               	dw	98
   174  00192E  0075               	dw	117
   175  001930  008B               	dw	139
   176  001932  00A1               	dw	161
   177  001934  00B9               	dw	185
   178  001936  00D3               	dw	211
   179  001938  00ED               	dw	237
   180  00193A  0109               	dw	265
   181  00193C  0126               	dw	294
   182  00193E  0143               	dw	323
   183  001940  0161               	dw	353
   184  001942  0180               	dw	384
   185  001944  01A0               	dw	416
   186  001946  01BF               	dw	447
   187  001948  01DF               	dw	479
   188                           
   189                           	psect	idataBANK3
   190  00194A                     __pidataBANK3:
   191                           	callstack 0
   192                           
   193                           ;initializer for _triangle
   194  00194A  0014               	dw	20
   195  00194C  0029               	dw	41
   196  00194E  003D               	dw	61
   197  001950  0052               	dw	82
   198  001952  0066               	dw	102
   199  001954  007B               	dw	123
   200  001956  008F               	dw	143
   201  001958  00A4               	dw	164
   202  00195A  00B8               	dw	184
   203  00195C  00CD               	dw	205
   204  00195E  00E1               	dw	225
   205  001960  00F6               	dw	246
   206  001962  010A               	dw	266
   207  001964  011E               	dw	286
   208  001966  0133               	dw	307
   209  001968  0147               	dw	327
   210  00196A  015C               	dw	348
   211  00196C  0170               	dw	368
   212  00196E  0185               	dw	389
   213  001970  0199               	dw	409
   214  001972  01AE               	dw	430
   215  001974  01C2               	dw	450
   216  001976  01D7               	dw	471
   217  001978  01EB               	dw	491
   218  00197A  0200               	dw	512
   219  00197C  0214               	dw	532
   220  00197E  0228               	dw	552
   221  001980  023D               	dw	573
   222  001982  0251               	dw	593
   223  001984  0266               	dw	614
   224  001986  027A               	dw	634
   225  001988  028F               	dw	655
   226  00198A  02A3               	dw	675
   227  00198C  02B8               	dw	696
   228  00198E  02CC               	dw	716
   229  001990  02E1               	dw	737
   230  001992  02F5               	dw	757
   231  001994  0309               	dw	777
   232  001996  031E               	dw	798
   233  001998  0332               	dw	818
   234  00199A  0347               	dw	839
   235  00199C  035B               	dw	859
   236  00199E  0370               	dw	880
   237  0019A0  0384               	dw	900
   238  0019A2  0399               	dw	921
   239  0019A4  03AD               	dw	941
   240  0019A6  03C2               	dw	962
   241  0019A8  03D6               	dw	982
   242  0019AA  03EB               	dw	1003
   243  0019AC  03FF               	dw	1023
   244  0019AE  03EB               	dw	1003
   245  0019B0  03D6               	dw	982
   246  0019B2  03C2               	dw	962
   247  0019B4  03AD               	dw	941
   248  0019B6  0399               	dw	921
   249  0019B8  0384               	dw	900
   250  0019BA  0370               	dw	880
   251  0019BC  035B               	dw	859
   252  0019BE  0347               	dw	839
   253  0019C0  0332               	dw	818
   254  0019C2  031E               	dw	798
   255  0019C4  0309               	dw	777
   256  0019C6  02F5               	dw	757
   257  0019C8  02E1               	dw	737
   258  0019CA  02CC               	dw	716
   259  0019CC  02B8               	dw	696
   260  0019CE  02A3               	dw	675
   261  0019D0  028F               	dw	655
   262  0019D2  027A               	dw	634
   263  0019D4  0266               	dw	614
   264  0019D6  0251               	dw	593
   265  0019D8  023D               	dw	573
   266  0019DA  0228               	dw	552
   267  0019DC  0214               	dw	532
   268  0019DE  0200               	dw	512
   269  0019E0  01EB               	dw	491
   270  0019E2  01D7               	dw	471
   271  0019E4  01C2               	dw	450
   272  0019E6  01AE               	dw	430
   273  0019E8  0199               	dw	409
   274  0019EA  0185               	dw	389
   275  0019EC  0170               	dw	368
   276  0019EE  015C               	dw	348
   277  0019F0  0147               	dw	327
   278  0019F2  0133               	dw	307
   279  0019F4  011E               	dw	286
   280  0019F6  010A               	dw	266
   281  0019F8  00F6               	dw	246
   282  0019FA  00E1               	dw	225
   283  0019FC  00CD               	dw	205
   284  0019FE  00B8               	dw	184
   285  001A00  00A4               	dw	164
   286  001A02  008F               	dw	143
   287  001A04  007B               	dw	123
   288  001A06  0066               	dw	102
   289  001A08  0052               	dw	82
   290  001A0A  003D               	dw	61
   291  001A0C  0029               	dw	41
   292  001A0E  0014               	dw	20
   293  001A10  0000               	dw	0
   294                           
   295                           	psect	idataBANK4
   296  001A12                     __pidataBANK4:
   297                           	callstack 0
   298                           
   299                           ;initializer for _square
   300  001A12  0000               	dw	0
   301  001A14  0000               	dw	0
   302  001A16  0000               	dw	0
   303  001A18  0000               	dw	0
   304  001A1A  0000               	dw	0
   305  001A1C  0000               	dw	0
   306  001A1E  0000               	dw	0
   307  001A20  0000               	dw	0
   308  001A22  0000               	dw	0
   309  001A24  0000               	dw	0
   310  001A26  0000               	dw	0
   311  001A28  0000               	dw	0
   312  001A2A  0000               	dw	0
   313  001A2C  0000               	dw	0
   314  001A2E  0000               	dw	0
   315  001A30  0000               	dw	0
   316  001A32  0000               	dw	0
   317  001A34  0000               	dw	0
   318  001A36  0000               	dw	0
   319  001A38  0000               	dw	0
   320  001A3A  0000               	dw	0
   321  001A3C  0000               	dw	0
   322  001A3E  0000               	dw	0
   323  001A40  0000               	dw	0
   324  001A42  0000               	dw	0
   325  001A44  0000               	dw	0
   326  001A46  0000               	dw	0
   327  001A48  0000               	dw	0
   328  001A4A  0000               	dw	0
   329  001A4C  0000               	dw	0
   330  001A4E  0000               	dw	0
   331  001A50  0000               	dw	0
   332  001A52  0000               	dw	0
   333  001A54  0000               	dw	0
   334  001A56  0000               	dw	0
   335  001A58  0000               	dw	0
   336  001A5A  0000               	dw	0
   337  001A5C  0000               	dw	0
   338  001A5E  0000               	dw	0
   339  001A60  0000               	dw	0
   340  001A62  0000               	dw	0
   341  001A64  0000               	dw	0
   342  001A66  0000               	dw	0
   343  001A68  0000               	dw	0
   344  001A6A  0000               	dw	0
   345  001A6C  0000               	dw	0
   346  001A6E  0000               	dw	0
   347  001A70  0000               	dw	0
   348  001A72  0000               	dw	0
   349  001A74  0000               	dw	0
   350  001A76  03FF               	dw	1023
   351  001A78  03FF               	dw	1023
   352  001A7A  03FF               	dw	1023
   353  001A7C  03FF               	dw	1023
   354  001A7E  03FF               	dw	1023
   355  001A80  03FF               	dw	1023
   356  001A82  03FF               	dw	1023
   357  001A84  03FF               	dw	1023
   358  001A86  03FF               	dw	1023
   359  001A88  03FF               	dw	1023
   360  001A8A  03FF               	dw	1023
   361  001A8C  03FF               	dw	1023
   362  001A8E  03FF               	dw	1023
   363  001A90  03FF               	dw	1023
   364  001A92  03FF               	dw	1023
   365  001A94  03FF               	dw	1023
   366  001A96  03FF               	dw	1023
   367  001A98  03FF               	dw	1023
   368  001A9A  03FF               	dw	1023
   369  001A9C  03FF               	dw	1023
   370  001A9E  03FF               	dw	1023
   371  001AA0  03FF               	dw	1023
   372  001AA2  03FF               	dw	1023
   373  001AA4  03FF               	dw	1023
   374  001AA6  03FF               	dw	1023
   375  001AA8  03FF               	dw	1023
   376  001AAA  03FF               	dw	1023
   377  001AAC  03FF               	dw	1023
   378  001AAE  03FF               	dw	1023
   379  001AB0  03FF               	dw	1023
   380  001AB2  03FF               	dw	1023
   381  001AB4  03FF               	dw	1023
   382  001AB6  03FF               	dw	1023
   383  001AB8  03FF               	dw	1023
   384  001ABA  03FF               	dw	1023
   385  001ABC  03FF               	dw	1023
   386  001ABE  03FF               	dw	1023
   387  001AC0  03FF               	dw	1023
   388  001AC2  03FF               	dw	1023
   389  001AC4  03FF               	dw	1023
   390  001AC6  03FF               	dw	1023
   391  001AC8  03FF               	dw	1023
   392  001ACA  03FF               	dw	1023
   393  001ACC  03FF               	dw	1023
   394  001ACE  03FF               	dw	1023
   395  001AD0  03FF               	dw	1023
   396  001AD2  03FF               	dw	1023
   397  001AD4  03FF               	dw	1023
   398  001AD6  03FF               	dw	1023
   399  001AD8  03FF               	dw	1023
   400                           
   401                           	psect	idataBANK5
   402  001ADA                     __pidataBANK5:
   403                           	callstack 0
   404                           
   405                           ;initializer for _sawtooth
   406  001ADA  0000               	dw	0
   407  001ADC  000B               	dw	11
   408  001ADE  0016               	dw	22
   409  001AE0  0021               	dw	33
   410  001AE2  002C               	dw	44
   411  001AE4  0037               	dw	55
   412  001AE6  0042               	dw	66
   413  001AE8  004D               	dw	77
   414  001AEA  0058               	dw	88
   415  001AEC  0063               	dw	99
   416  001AEE  006E               	dw	110
   417  001AF0  0079               	dw	121
   418  001AF2  0084               	dw	132
   419  001AF4  008F               	dw	143
   420  001AF6  009A               	dw	154
   421  001AF8  00A5               	dw	165
   422  001AFA  00B0               	dw	176
   423  001AFC  00BB               	dw	187
   424  001AFE  00C6               	dw	198
   425  001B00  00D1               	dw	209
   426  001B02  00DC               	dw	220
   427  001B04  00E7               	dw	231
   428  001B06  00F2               	dw	242
   429  001B08  00FD               	dw	253
   430  001B0A  0108               	dw	264
   431  001B0C  0113               	dw	275
   432  001B0E  011E               	dw	286
   433  001B10  0129               	dw	297
   434  001B12  0134               	dw	308
   435  001B14  013F               	dw	319
   436  001B16  014A               	dw	330
   437  001B18  0155               	dw	341
   438  001B1A  0160               	dw	352
   439  001B1C  016B               	dw	363
   440  001B1E  0176               	dw	374
   441  001B20  0181               	dw	385
   442  001B22  018C               	dw	396
   443  001B24  0197               	dw	407
   444  001B26  01A2               	dw	418
   445  001B28  01AD               	dw	429
   446  001B2A  01B8               	dw	440
   447  001B2C  01C3               	dw	451
   448  001B2E  01CE               	dw	462
   449  001B30  01D9               	dw	473
   450  001B32  01E4               	dw	484
   451  001B34  01EF               	dw	495
   452  001B36  01FA               	dw	506
   453  001B38  0205               	dw	517
   454  001B3A  0210               	dw	528
   455  001B3C  021B               	dw	539
   456  001B3E  0226               	dw	550
   457  001B40  0231               	dw	561
   458  001B42  023C               	dw	572
   459  001B44  0247               	dw	583
   460  001B46  0252               	dw	594
   461  001B48  025D               	dw	605
   462  001B4A  0268               	dw	616
   463  001B4C  0273               	dw	627
   464  001B4E  027E               	dw	638
   465  001B50  0289               	dw	649
   466  001B52  0294               	dw	660
   467  001B54  029F               	dw	671
   468  001B56  02AA               	dw	682
   469  001B58  02B5               	dw	693
   470  001B5A  02C0               	dw	704
   471  001B5C  02CB               	dw	715
   472  001B5E  02D6               	dw	726
   473  001B60  02E1               	dw	737
   474  001B62  02EC               	dw	748
   475  001B64  02F7               	dw	759
   476  001B66  0302               	dw	770
   477  001B68  030D               	dw	781
   478  001B6A  0318               	dw	792
   479  001B6C  0323               	dw	803
   480  001B6E  032E               	dw	814
   481  001B70  0339               	dw	825
   482  001B72  0344               	dw	836
   483  001B74  034F               	dw	847
   484  001B76  035A               	dw	858
   485  001B78  0365               	dw	869
   486  001B7A  0370               	dw	880
   487  001B7C  037B               	dw	891
   488  001B7E  0386               	dw	902
   489  001B80  0391               	dw	913
   490  001B82  039C               	dw	924
   491  001B84  03A7               	dw	935
   492  001B86  03B2               	dw	946
   493  001B88  03BD               	dw	957
   494  001B8A  03C8               	dw	968
   495  001B8C  03D3               	dw	979
   496  001B8E  03DE               	dw	990
   497  001B90  03E9               	dw	1001
   498  001B92  03F4               	dw	1012
   499  001B94  03FF               	dw	1023
   500  001B96  03FF               	dw	1023
   501  001B98  03FF               	dw	1023
   502  001B9A  03FF               	dw	1023
   503  001B9C  03FF               	dw	1023
   504  001B9E  03FF               	dw	1023
   505  001BA0  03FF               	dw	1023
   506                           
   507                           	psect	smallconst
   508  000F00                     __psmallconst:
   509                           	callstack 0
   510  000F00  00                 	db	0
   511  000F01                     _spi1_configuration:
   512                           	callstack 0
   513  000F01  00                 	db	0
   514  000F02  40                 	db	64
   515  000F03  01                 	db	1
   516  000F04  00                 	db	0
   517  000F05                     __end_of_spi1_configuration:
   518                           	callstack 0
   519  0000                     _OSCTUNE	set	3805
   520  0000                     _OSCFRQ	set	3806
   521  0000                     _ADERRL	set	3950
   522  0000                     _ADERRH	set	3951
   523  0000                     _ADPREVL	set	3937
   524  0000                     _ADPREVH	set	3938
   525  0000                     _ADFLTRL	set	3954
   526  0000                     _ADFLTRH	set	3955
   527  0000                     _ADACCL	set	3952
   528  0000                     _ADACCH	set	3953
   529  0000                     _ADCNT	set	3943
   530  0000                     _ADRESL	set	3939
   531  0000                     _ADRESH	set	3940
   532  0000                     _ADACQ	set	3932
   533  0000                     _ADCON0	set	3936
   534  0000                     _ADCLK	set	3927
   535  0000                     _ADSTAT	set	3941
   536  0000                     _ADCON3	set	3931
   537  0000                     _ADCON2	set	3930
   538  0000                     _ADPRE	set	3934
   539  0000                     _ADSTPTH	set	3945
   540  0000                     _ADUTHH	set	3949
   541  0000                     _ADUTHL	set	3948
   542  0000                     _ADLTHH	set	3947
   543  0000                     _INLVLD	set	3874
   544  0000                     _SLRCOND	set	3875
   545  0000                     _ODCOND	set	3876
   546  0000                     _WPUD	set	3877
   547  0000                     _TRISD	set	3979
   548  0000                     _TRISC	set	3978
   549  0000                     _TRISB	set	3977
   550  0000                     _TRISA	set	3976
   551  0000                     _TRISE	set	3980
   552  0000                     _LATC	set	3973
   553  0000                     _LATB	set	3972
   554  000F05  00                 	db	0	; dummy byte at the end
   555  0000                     
   556                           	psect	nvCOMRAM
   557  00004E                     __pnvCOMRAM:
   558                           	callstack 0
   559  00004E                     _ADCC_ADI_InterruptHandler:
   560                           	callstack 0
   561  00004E                     	ds	3
   562  0000                     _ADCON1bits	set	3929
   563  0000                     _ADCON2bits	set	3930
   564  0000                     _ADCON3bits	set	3931
   565  0000                     _LATBbits	set	3972
   566  0000                     _SSP1CON1bits	set	3990
   567  0000                     _TRISCbits	set	3978
   568  0000                     _ADSTATbits	set	3941
   569  0000                     _ADCON0bits	set	3936
   570  0000                     _SSP1CLKPPS	set	3767
   571  0000                     _RC0PPS	set	3831
   572  0000                     _INLVLA	set	3853
   573  0000                     _SLRCONA	set	3854
   574  0000                     _ODCONA	set	3855
   575  0000                     _WPUA	set	3856
   576  0000                     _ANSELA	set	3857
   577  0000                     _ANSELB	set	3865
   578  0000                     _ANSELC	set	3873
   579  0000                     _ANSELD	set	3878
   580  0000                     _LATA	set	3971
   581  0000                     _LATD	set	3974
   582  0000                     _LATE	set	3975
   583  0000                     _PORTAbits	set	3981
   584  0000                     _SSP1BUF	set	3986
   585  0000                     _SSP1ADD	set	3987
   586  0000                     _SSP1STAT	set	3989
   587  0000                     _INLVLE	set	3882
   588  0000                     _SLRCONE	set	3883
   589  0000                     _ODCONE	set	3884
   590  0000                     _WPUE	set	3885
   591  0000                     _ANSELE	set	3886
   592  0000                     _INLVLC	set	3869
   593  0000                     _SLRCONC	set	3870
   594  0000                     _ODCONC	set	3871
   595  0000                     _WPUC	set	3872
   596  0000                     _ADACT	set	3926
   597  0000                     _ADREF	set	3928
   598  0000                     _ADCON1	set	3929
   599  0000                     _ADCAP	set	3933
   600  0000                     _ADPCH	set	3935
   601  0000                     _ADRPT	set	3942
   602  0000                     _ADSTPTL	set	3944
   603  0000                     _ADLTHL	set	3946
   604  0000                     _INLVLB	set	3861
   605  0000                     _SLRCONB	set	3862
   606  0000                     _ODCONB	set	3863
   607  0000                     _WPUB	set	3864
   608  0000                     _RC1PPS	set	3832
   609  0000                     _PIE1bits	set	3779
   610  0000                     _PIR1bits	set	3787
   611  0000                     _SSP1DATPPS	set	3768
   612  0000                     _PIR3bits	set	3789
   613  0000                     _OSCCON1	set	3800
   614  0000                     _OSCCON3	set	3802
   615  0000                     _OSCEN	set	3804
   616  0000                     _PMD0	set	3809
   617  0000                     _PMD5	set	3814
   618  0000                     _PMD4	set	3813
   619  0000                     _PMD3	set	3812
   620  0000                     _PMD2	set	3811
   621  0000                     _PMD1	set	3810
   622  0000                     _INTCONbits	set	4082
   623  0000                     _SSP1CON2	set	3991
   624  0000                     _SSP1CON1	set	3990
   625                           
   626                           ; #config settings
   627                           
   628                           	psect	cinit
   629  001BA2                     __pcinit:
   630                           	callstack 0
   631  001BA2                     start_initialization:
   632                           	callstack 0
   633  001BA2                     __initialization:
   634                           	callstack 0
   635                           
   636                           ; Initialize objects allocated to BANK5 (200 bytes)
   637                           ; load TBLPTR registers with __pidataBANK5
   638  001BA2  0EDA               	movlw	low __pidataBANK5
   639  001BA4  6EF6               	movwf	tblptrl,c
   640  001BA6  0E1A               	movlw	high __pidataBANK5
   641  001BA8  6EF7               	movwf	tblptrh,c
   642  001BAA  0E00               	movlw	low (__pidataBANK5 shr (0+16))
   643  001BAC  6EF8               	movwf	tblptru,c
   644  001BAE  EE05  F000         	lfsr	0,__pdataBANK5
   645  001BB2  EE10 F0C8          	lfsr	1,200
   646  001BB6                     copy_data0:
   647  001BB6  0009               	tblrd		*+
   648  001BB8  CFF5 FFEE          	movff	tablat,postinc0
   649  001BBC  50E5               	movf	postdec1,w,c
   650  001BBE  50E1               	movf	fsr1l,w,c
   651  001BC0  E1FA               	bnz	copy_data0
   652                           
   653                           ; Initialize objects allocated to BANK4 (200 bytes)
   654                           ; load TBLPTR registers with __pidataBANK4
   655  001BC2  0E12               	movlw	low __pidataBANK4
   656  001BC4  6EF6               	movwf	tblptrl,c
   657  001BC6  0E1A               	movlw	high __pidataBANK4
   658  001BC8  6EF7               	movwf	tblptrh,c
   659  001BCA  0E00               	movlw	low (__pidataBANK4 shr (0+16))
   660  001BCC  6EF8               	movwf	tblptru,c
   661  001BCE  EE04  F000         	lfsr	0,__pdataBANK4
   662  001BD2  EE10 F0C8          	lfsr	1,200
   663  001BD6                     copy_data1:
   664  001BD6  0009               	tblrd		*+
   665  001BD8  CFF5 FFEE          	movff	tablat,postinc0
   666  001BDC  50E5               	movf	postdec1,w,c
   667  001BDE  50E1               	movf	fsr1l,w,c
   668  001BE0  E1FA               	bnz	copy_data1
   669                           
   670                           ; Initialize objects allocated to BANK3 (200 bytes)
   671                           ; load TBLPTR registers with __pidataBANK3
   672  001BE2  0E4A               	movlw	low __pidataBANK3
   673  001BE4  6EF6               	movwf	tblptrl,c
   674  001BE6  0E19               	movlw	high __pidataBANK3
   675  001BE8  6EF7               	movwf	tblptrh,c
   676  001BEA  0E00               	movlw	low (__pidataBANK3 shr (0+16))
   677  001BEC  6EF8               	movwf	tblptru,c
   678  001BEE  EE03  F000         	lfsr	0,__pdataBANK3
   679  001BF2  EE10 F0C8          	lfsr	1,200
   680  001BF6                     copy_data2:
   681  001BF6  0009               	tblrd		*+
   682  001BF8  CFF5 FFEE          	movff	tablat,postinc0
   683  001BFC  50E5               	movf	postdec1,w,c
   684  001BFE  50E1               	movf	fsr1l,w,c
   685  001C00  E1FA               	bnz	copy_data2
   686                           
   687                           ; Initialize objects allocated to BANK2 (200 bytes)
   688                           ; load TBLPTR registers with __pidataBANK2
   689  001C02  0E82               	movlw	low __pidataBANK2
   690  001C04  6EF6               	movwf	tblptrl,c
   691  001C06  0E18               	movlw	high __pidataBANK2
   692  001C08  6EF7               	movwf	tblptrh,c
   693  001C0A  0E00               	movlw	low (__pidataBANK2 shr (0+16))
   694  001C0C  6EF8               	movwf	tblptru,c
   695  001C0E  EE02  F000         	lfsr	0,__pdataBANK2
   696  001C12  EE10 F0C8          	lfsr	1,200
   697  001C16                     copy_data3:
   698  001C16  0009               	tblrd		*+
   699  001C18  CFF5 FFEE          	movff	tablat,postinc0
   700  001C1C  50E5               	movf	postdec1,w,c
   701  001C1E  50E1               	movf	fsr1l,w,c
   702  001C20  E1FA               	bnz	copy_data3
   703                           
   704                           ; Clear objects allocated to BANK1 (200 bytes)
   705  001C22  EE01  F000         	lfsr	0,__pbssBANK1
   706  001C26  0EC8               	movlw	200
   707  001C28                     clear_0:
   708  001C28  6AEE               	clrf	postinc0,c
   709  001C2A  06E8               	decf	wreg,f,c
   710  001C2C  E1FD               	bnz	clear_0
   711                           
   712                           ; Clear objects allocated to COMRAM (8 bytes)
   713  001C2E  EE00  F046         	lfsr	0,__pbssCOMRAM
   714  001C32  0E08               	movlw	8
   715  001C34                     clear_1:
   716  001C34  6AEE               	clrf	postinc0,c
   717  001C36  06E8               	decf	wreg,f,c
   718  001C38  E1FD               	bnz	clear_1
   719  001C3A                     end_of_initialization:
   720                           	callstack 0
   721  001C3A                     __end_of__initialization:
   722                           	callstack 0
   723  001C3A  9051               	bcf	int$flags,0,c	;clear compiler interrupt flag (level 1)
   724  001C3C  9251               	bcf	int$flags,1,c	;clear compiler interrupt flag (level 2)
   725  001C3E  0100               	movlb	0
   726  001C40  EF98  F009         	goto	_main	;jump to C main() function
   727                           
   728                           	psect	bssCOMRAM
   729  000046                     __pbssCOMRAM:
   730                           	callstack 0
   731  000046                     _Period:
   732                           	callstack 0
   733  000046                     	ds	2
   734  000048                     _ADCPeriod:
   735                           	callstack 0
   736  000048                     	ds	2
   737  00004A                     _OutData:
   738                           	callstack 0
   739  00004A                     	ds	2
   740  00004C                     _OutDataLower:
   741                           	callstack 0
   742  00004C                     	ds	1
   743  00004D                     _OutDataUpper:
   744                           	callstack 0
   745  00004D                     	ds	1
   746                           
   747                           	psect	bssBANK1
   748  000100                     __pbssBANK1:
   749                           	callstack 0
   750  000100                     _LUTData:
   751                           	callstack 0
   752  000100                     	ds	200
   753                           
   754                           	psect	dataBANK2
   755  000200                     __pdataBANK2:
   756                           	callstack 0
   757  000200                     _sine:
   758                           	callstack 0
   759  000200                     	ds	200
   760                           
   761                           	psect	dataBANK3
   762  000300                     __pdataBANK3:
   763                           	callstack 0
   764  000300                     _triangle:
   765                           	callstack 0
   766  000300                     	ds	200
   767                           
   768                           	psect	dataBANK4
   769  000400                     __pdataBANK4:
   770                           	callstack 0
   771  000400                     _square:
   772                           	callstack 0
   773  000400                     	ds	200
   774                           
   775                           	psect	dataBANK5
   776  000500                     __pdataBANK5:
   777                           	callstack 0
   778  000500                     _sawtooth:
   779                           	callstack 0
   780  000500                     	ds	200
   781                           
   782                           	psect	cstackCOMRAM
   783  000001                     __pcstackCOMRAM:
   784                           	callstack 0
   785  000001                     ??_INTERRUPT_InterruptManager:
   786                           
   787                           ; 1 bytes @ 0x0
   788  000001                     	ds	2
   789  000003                     ?_SPIConvertData:
   790                           	callstack 0
   791  000003                     ?_ADCC_GetConversionResult:
   792                           	callstack 0
   793  000003                     ?___xxtofl:
   794                           	callstack 0
   795  000003                     ADCC_StartConversion@channel:
   796                           	callstack 0
   797  000003                     SPI1_WriteByte@byte:
   798                           	callstack 0
   799  000003                     SPIConvertData@Data:
   800                           	callstack 0
   801  000003                     ADCC_SetADIInterruptHandler@InterruptHandler:
   802                           	callstack 0
   803  000003                     delayUS@usec:
   804                           	callstack 0
   805  000003                     ___xxtofl@val:
   806                           	callstack 0
   807                           
   808                           ; 4 bytes @ 0x2
   809  000003                     	ds	2
   810  000005                     ??_SPIConvertData:
   811  000005                     ??_ADCC_GetConversionResult:
   812                           
   813                           ; 1 bytes @ 0x4
   814  000005                     	ds	1
   815  000006                     
   816                           ; 1 bytes @ 0x5
   817  000006                     	ds	1
   818  000007                     ??___xxtofl:
   819  000007                     SPIConvertData@DigiPacket:
   820                           	callstack 0
   821  000007                     delayUS@i:
   822                           	callstack 0
   823                           
   824                           ; 4 bytes @ 0x6
   825  000007                     	ds	4
   826  00000B                     ___xxtofl@sign:
   827                           	callstack 0
   828                           
   829                           ; 1 bytes @ 0xA
   830  00000B                     	ds	1
   831  00000C                     ___xxtofl@exp:
   832                           	callstack 0
   833                           
   834                           ; 1 bytes @ 0xB
   835  00000C                     	ds	1
   836  00000D                     ___xxtofl@arg:
   837                           	callstack 0
   838                           
   839                           ; 4 bytes @ 0xC
   840  00000D                     	ds	4
   841  000011                     ?___flmul:
   842                           	callstack 0
   843  000011                     ___flmul@b:
   844                           	callstack 0
   845                           
   846                           ; 4 bytes @ 0x10
   847  000011                     	ds	4
   848  000015                     ___flmul@a:
   849                           	callstack 0
   850                           
   851                           ; 4 bytes @ 0x14
   852  000015                     	ds	4
   853  000019                     ??___flmul:
   854                           
   855                           ; 1 bytes @ 0x18
   856  000019                     	ds	4
   857  00001D                     ___flmul@sign:
   858                           	callstack 0
   859                           
   860                           ; 1 bytes @ 0x1C
   861  00001D                     	ds	1
   862  00001E                     ___flmul@grs:
   863                           	callstack 0
   864                           
   865                           ; 4 bytes @ 0x1D
   866  00001E                     	ds	4
   867  000022                     ___flmul@aexp:
   868                           	callstack 0
   869                           
   870                           ; 1 bytes @ 0x21
   871  000022                     	ds	1
   872  000023                     ___flmul@bexp:
   873                           	callstack 0
   874                           
   875                           ; 1 bytes @ 0x22
   876  000023                     	ds	1
   877  000024                     ___flmul@prod:
   878                           	callstack 0
   879                           
   880                           ; 4 bytes @ 0x23
   881  000024                     	ds	4
   882  000028                     ___flmul@temp:
   883                           	callstack 0
   884                           
   885                           ; 2 bytes @ 0x27
   886  000028                     	ds	2
   887  00002A                     ?___fltol:
   888                           	callstack 0
   889  00002A                     ___fltol@f1:
   890                           	callstack 0
   891                           
   892                           ; 4 bytes @ 0x29
   893  00002A                     	ds	4
   894  00002E                     ??___fltol:
   895                           
   896                           ; 1 bytes @ 0x2D
   897  00002E                     	ds	4
   898  000032                     ___fltol@sign1:
   899                           	callstack 0
   900                           
   901                           ; 1 bytes @ 0x31
   902  000032                     	ds	1
   903  000033                     ___fltol@exp1:
   904                           	callstack 0
   905                           
   906                           ; 1 bytes @ 0x32
   907  000033                     	ds	1
   908  000034                     ?_PeriodCalc:
   909                           	callstack 0
   910  000034                     PeriodCalc@ADCVal:
   911                           	callstack 0
   912                           
   913                           ; 2 bytes @ 0x33
   914  000034                     	ds	2
   915  000036                     PeriodCalc@T:
   916                           	callstack 0
   917                           
   918                           ; 2 bytes @ 0x35
   919  000036                     	ds	2
   920  000038                     ??_main:
   921                           
   922                           ; 1 bytes @ 0x37
   923  000038                     	ds	2
   924  00003A                     main@DIPValues:
   925                           	callstack 0
   926                           
   927                           ; 1 bytes @ 0x39
   928  00003A                     	ds	1
   929  00003B                     main@i:
   930                           	callstack 0
   931                           
   932                           ; 2 bytes @ 0x3A
   933  00003B                     	ds	2
   934  00003D                     main@j:
   935                           	callstack 0
   936                           
   937                           ; 2 bytes @ 0x3C
   938  00003D                     	ds	2
   939  00003F                     main@j_745:
   940                           	callstack 0
   941                           
   942                           ; 2 bytes @ 0x3E
   943  00003F                     	ds	2
   944  000041                     main@j_746:
   945                           	callstack 0
   946                           
   947                           ; 2 bytes @ 0x40
   948  000041                     	ds	2
   949  000043                     main@j_747:
   950                           	callstack 0
   951                           
   952                           ; 2 bytes @ 0x42
   953  000043                     	ds	2
   954  000045                     main@OutputSelect:
   955                           	callstack 0
   956                           
   957                           ; 1 bytes @ 0x44
   958  000045                     	ds	1
   959                           
   960 ;;
   961 ;;Main: autosize = 0, tempsize = 2, incstack = 0, save=0
   962 ;;
   963 ;; *************** function _main *****************
   964 ;; Defined at:
   965 ;;		line 114 in file "main.c"
   966 ;; Parameters:    Size  Location     Type
   967 ;;		None
   968 ;; Auto vars:     Size  Location     Type
   969 ;;  i               2   58[COMRAM] unsigned short 
   970 ;;  j               2   66[COMRAM] unsigned short 
   971 ;;  j               2   64[COMRAM] unsigned short 
   972 ;;  j               2   62[COMRAM] unsigned short 
   973 ;;  j               2   60[COMRAM] unsigned short 
   974 ;;  OutputSelect    1   68[COMRAM] unsigned char 
   975 ;;  DIPValues       1   57[COMRAM] unsigned char 
   976 ;; Return value:  Size  Location     Type
   977 ;;                  1    wreg      void 
   978 ;; Registers used:
   979 ;;		wreg, fsr1l, fsr1h, fsr2l, fsr2h, status,2, status,0, prodl, prodh, cstack
   980 ;; Tracked objects:
   981 ;;		On entry : 0/0
   982 ;;		On exit  : 0/0
   983 ;;		Unchanged: 0/0
   984 ;; Data sizes:     COMRAM   BANK0   BANK1   BANK2   BANK3   BANK4   BANK5   BANK6   BANK7   BANK8   BANK9  BANK10  BANK1
      +1  BANK12  BANK13  BANK14
   985 ;;      Params:         0       0       0       0       0       0       0       0       0       0       0       0       
      +0       0       0       0
   986 ;;      Locals:        12       0       0       0       0       0       0       0       0       0       0       0       
      +0       0       0       0
   987 ;;      Temps:          2       0       0       0       0       0       0       0       0       0       0       0       
      +0       0       0       0
   988 ;;      Totals:        14       0       0       0       0       0       0       0       0       0       0       0       
      +0       0       0       0
   989 ;;Total ram usage:       14 bytes
   990 ;; Hardware stack levels required when called: 6
   991 ;; This function calls:
   992 ;;		_ADCC_GetConversionResult
   993 ;;		_ADCC_StartConversion
   994 ;;		_PeriodCalc
   995 ;;		_SPI1_WriteByte
   996 ;;		_SPIConvertData
   997 ;;		_SYSTEM_Initialize
   998 ;;		_delayUS
   999 ;; This function is called by:
  1000 ;;		Startup code after reset
  1001 ;; This function uses a non-reentrant model
  1002 ;;
  1003                           
  1004                           	psect	text0
  1005  001330                     __ptext0:
  1006                           	callstack 0
  1007  001330                     _main:
  1008                           	callstack 25
  1009  001330                     
  1010                           ;main.c: 117:     uint8_t OutputSelect = 0;
  1011  001330  0E00               	movlw	0
  1012  001332  6E45               	movwf	main@OutputSelect^0,c
  1013  001334                     
  1014                           ;main.c: 119:     SYSTEM_Initialize();
  1015  001334  EC3B  F00F         	call	_SYSTEM_Initialize	;wreg free
  1016  001338                     
  1017                           ;main.c: 120:     SSP1CON1bits.SSPEN = 1;
  1018  001338  8A96               	bsf	150,5,c	;volatile
  1019  00133A                     
  1020                           ;main.c: 129:     ADCC_StartConversion(0x01);
  1021  00133A  0E01               	movlw	1
  1022  00133C  EC65  F00F         	call	_ADCC_StartConversion
  1023  001340                     l2017:
  1024                           
  1025                           ;main.c: 132:     {;main.c: 133:         DIPValues = (PORTAbits.RA0 << 1) | PORTAbits.RA
      +                          1;
  1026  001340  B28D               	btfsc	141,1,c	;volatile
  1027  001342  EFA5  F009         	goto	u1011
  1028  001346  EFA9  F009         	goto	u1010
  1029  00134A                     u1011:
  1030  00134A  6A38               	clrf	??_main^0,c
  1031  00134C  2A38               	incf	??_main^0,f,c
  1032  00134E  EFAA  F009         	goto	u1018
  1033  001352                     u1010:
  1034  001352  6A38               	clrf	??_main^0,c
  1035  001354                     u1018:
  1036  001354  B08D               	btfsc	141,0,c	;volatile
  1037  001356  EFAF  F009         	goto	u1021
  1038  00135A  EFB3  F009         	goto	u1020
  1039  00135E                     u1021:
  1040  00135E  6A39               	clrf	(??_main+1)^0,c
  1041  001360  2A39               	incf	(??_main+1)^0,f,c
  1042  001362  EFB4  F009         	goto	u1028
  1043  001366                     u1020:
  1044  001366  6A39               	clrf	(??_main+1)^0,c
  1045  001368                     u1028:
  1046  001368  90D8               	bcf	status,0,c
  1047  00136A  3439               	rlcf	(??_main+1)^0,w,c
  1048  00136C  1038               	iorwf	??_main^0,w,c
  1049  00136E  6E3A               	movwf	main@DIPValues^0,c
  1050  001370                     
  1051                           ;main.c: 134:         OutputSelect = DIPValues;
  1052  001370  C03A  F045         	movff	main@DIPValues,main@OutputSelect
  1053  001374                     
  1054                           ;main.c: 135:         if(OutputSelect == 0){
  1055  001374  5045               	movf	main@OutputSelect^0,w,c
  1056  001376  A4D8               	btfss	status,2,c
  1057  001378  EFC0  F009         	goto	u1031
  1058  00137C  EFC2  F009         	goto	u1030
  1059  001380                     u1031:
  1060  001380  EFE9  F009         	goto	l2035
  1061  001384                     u1030:
  1062  001384                     
  1063                           ;main.c: 136:             for(uint16_t j = 0; j< 100; j++){
  1064  001384  0E00               	movlw	0
  1065  001386  6E3E               	movwf	(main@j+1)^0,c
  1066  001388  0E00               	movlw	0
  1067  00138A  6E3D               	movwf	main@j^0,c
  1068  00138C                     l2029:
  1069                           
  1070                           ;main.c: 138:                 LUTData[j] = sine[j];
  1071  00138C  90D8               	bcf	status,0,c
  1072  00138E  343D               	rlcf	main@j^0,w,c
  1073  001390  6ED9               	movwf	fsr2l,c
  1074  001392  343E               	rlcf	(main@j+1)^0,w,c
  1075  001394  6EDA               	movwf	fsr2h,c
  1076  001396  0E00               	movlw	low _sine
  1077  001398  26D9               	addwf	fsr2l,f,c
  1078  00139A  0E02               	movlw	high _sine
  1079  00139C  22DA               	addwfc	fsr2h,f,c
  1080  00139E  90D8               	bcf	status,0,c
  1081  0013A0  343D               	rlcf	main@j^0,w,c
  1082  0013A2  6EE1               	movwf	fsr1l,c
  1083  0013A4  343E               	rlcf	(main@j+1)^0,w,c
  1084  0013A6  6EE2               	movwf	fsr1h,c
  1085  0013A8  0E00               	movlw	low _LUTData
  1086  0013AA  26E1               	addwf	fsr1l,f,c
  1087  0013AC  0E01               	movlw	high _LUTData
  1088  0013AE  22E2               	addwfc	fsr1h,f,c
  1089  0013B0  CFDE FFE6          	movff	postinc2,postinc1
  1090  0013B4  CFDD FFE5          	movff	postdec2,postdec1
  1091  0013B8                     
  1092                           ;main.c: 140:             }
  1093  0013B8  4A3D               	infsnz	main@j^0,f,c
  1094  0013BA  2A3E               	incf	(main@j+1)^0,f,c
  1095  0013BC  503E               	movf	(main@j+1)^0,w,c
  1096  0013BE  E109               	bnz	u1040
  1097  0013C0  0E64               	movlw	100
  1098  0013C2  5C3D               	subwf	main@j^0,w,c
  1099  0013C4  A0D8               	btfss	status,0,c
  1100  0013C6  EFE7  F009         	goto	u1041
  1101  0013CA  EFE9  F009         	goto	u1040
  1102  0013CE                     u1041:
  1103  0013CE  EFC6  F009         	goto	l2029
  1104  0013D2                     u1040:
  1105  0013D2                     l2035:
  1106                           
  1107                           ;main.c: 142:         if(OutputSelect == 1){
  1108  0013D2  0445               	decf	main@OutputSelect^0,w,c
  1109  0013D4  A4D8               	btfss	status,2,c
  1110  0013D6  EFEF  F009         	goto	u1051
  1111  0013DA  EFF1  F009         	goto	u1050
  1112  0013DE                     u1051:
  1113  0013DE  EF18  F00A         	goto	l2049
  1114  0013E2                     u1050:
  1115  0013E2                     
  1116                           ;main.c: 143:             for(uint16_t j = 0; j< 100; j++){
  1117  0013E2  0E00               	movlw	0
  1118  0013E4  6E40               	movwf	(main@j_745+1)^0,c
  1119  0013E6  0E00               	movlw	0
  1120  0013E8  6E3F               	movwf	main@j_745^0,c
  1121  0013EA                     l2043:
  1122                           
  1123                           ;main.c: 145:                 LUTData[j] = triangle[j];
  1124  0013EA  90D8               	bcf	status,0,c
  1125  0013EC  343F               	rlcf	main@j_745^0,w,c
  1126  0013EE  6ED9               	movwf	fsr2l,c
  1127  0013F0  3440               	rlcf	(main@j_745+1)^0,w,c
  1128  0013F2  6EDA               	movwf	fsr2h,c
  1129  0013F4  0E00               	movlw	low _triangle
  1130  0013F6  26D9               	addwf	fsr2l,f,c
  1131  0013F8  0E03               	movlw	high _triangle
  1132  0013FA  22DA               	addwfc	fsr2h,f,c
  1133  0013FC  90D8               	bcf	status,0,c
  1134  0013FE  343F               	rlcf	main@j_745^0,w,c
  1135  001400  6EE1               	movwf	fsr1l,c
  1136  001402  3440               	rlcf	(main@j_745+1)^0,w,c
  1137  001404  6EE2               	movwf	fsr1h,c
  1138  001406  0E00               	movlw	low _LUTData
  1139  001408  26E1               	addwf	fsr1l,f,c
  1140  00140A  0E01               	movlw	high _LUTData
  1141  00140C  22E2               	addwfc	fsr1h,f,c
  1142  00140E  CFDE FFE6          	movff	postinc2,postinc1
  1143  001412  CFDD FFE5          	movff	postdec2,postdec1
  1144  001416                     
  1145                           ;main.c: 147:             }
  1146  001416  4A3F               	infsnz	main@j_745^0,f,c
  1147  001418  2A40               	incf	(main@j_745+1)^0,f,c
  1148  00141A  5040               	movf	(main@j_745+1)^0,w,c
  1149  00141C  E109               	bnz	u1060
  1150  00141E  0E64               	movlw	100
  1151  001420  5C3F               	subwf	main@j_745^0,w,c
  1152  001422  A0D8               	btfss	status,0,c
  1153  001424  EF16  F00A         	goto	u1061
  1154  001428  EF18  F00A         	goto	u1060
  1155  00142C                     u1061:
  1156  00142C  EFF5  F009         	goto	l2043
  1157  001430                     u1060:
  1158  001430                     l2049:
  1159                           
  1160                           ;main.c: 149:         if(OutputSelect == 2){
  1161  001430  0E02               	movlw	2
  1162  001432  1845               	xorwf	main@OutputSelect^0,w,c
  1163  001434  A4D8               	btfss	status,2,c
  1164  001436  EF1F  F00A         	goto	u1071
  1165  00143A  EF21  F00A         	goto	u1070
  1166  00143E                     u1071:
  1167  00143E  EF48  F00A         	goto	l2063
  1168  001442                     u1070:
  1169  001442                     
  1170                           ;main.c: 150:             for(uint16_t j = 0; j< 100; j++){
  1171  001442  0E00               	movlw	0
  1172  001444  6E42               	movwf	(main@j_746+1)^0,c
  1173  001446  0E00               	movlw	0
  1174  001448  6E41               	movwf	main@j_746^0,c
  1175  00144A                     l2057:
  1176                           
  1177                           ;main.c: 152:                 LUTData[j] = square[j];
  1178  00144A  90D8               	bcf	status,0,c
  1179  00144C  3441               	rlcf	main@j_746^0,w,c
  1180  00144E  6ED9               	movwf	fsr2l,c
  1181  001450  3442               	rlcf	(main@j_746+1)^0,w,c
  1182  001452  6EDA               	movwf	fsr2h,c
  1183  001454  0E00               	movlw	low _square
  1184  001456  26D9               	addwf	fsr2l,f,c
  1185  001458  0E04               	movlw	high _square
  1186  00145A  22DA               	addwfc	fsr2h,f,c
  1187  00145C  90D8               	bcf	status,0,c
  1188  00145E  3441               	rlcf	main@j_746^0,w,c
  1189  001460  6EE1               	movwf	fsr1l,c
  1190  001462  3442               	rlcf	(main@j_746+1)^0,w,c
  1191  001464  6EE2               	movwf	fsr1h,c
  1192  001466  0E00               	movlw	low _LUTData
  1193  001468  26E1               	addwf	fsr1l,f,c
  1194  00146A  0E01               	movlw	high _LUTData
  1195  00146C  22E2               	addwfc	fsr1h,f,c
  1196  00146E  CFDE FFE6          	movff	postinc2,postinc1
  1197  001472  CFDD FFE5          	movff	postdec2,postdec1
  1198  001476                     
  1199                           ;main.c: 154:             }
  1200  001476  4A41               	infsnz	main@j_746^0,f,c
  1201  001478  2A42               	incf	(main@j_746+1)^0,f,c
  1202  00147A  5042               	movf	(main@j_746+1)^0,w,c
  1203  00147C  E109               	bnz	u1080
  1204  00147E  0E64               	movlw	100
  1205  001480  5C41               	subwf	main@j_746^0,w,c
  1206  001482  A0D8               	btfss	status,0,c
  1207  001484  EF46  F00A         	goto	u1081
  1208  001488  EF48  F00A         	goto	u1080
  1209  00148C                     u1081:
  1210  00148C  EF25  F00A         	goto	l2057
  1211  001490                     u1080:
  1212  001490                     l2063:
  1213                           
  1214                           ;main.c: 156:         if(OutputSelect == 3){
  1215  001490  0E03               	movlw	3
  1216  001492  1845               	xorwf	main@OutputSelect^0,w,c
  1217  001494  A4D8               	btfss	status,2,c
  1218  001496  EF4F  F00A         	goto	u1091
  1219  00149A  EF51  F00A         	goto	u1090
  1220  00149E                     u1091:
  1221  00149E  EFD7  F00A         	goto	l2109
  1222  0014A2                     u1090:
  1223  0014A2                     
  1224                           ;main.c: 157:             for(uint16_t j = 0; j< 100; j++){
  1225  0014A2  0E00               	movlw	0
  1226  0014A4  6E44               	movwf	(main@j_747+1)^0,c
  1227  0014A6  0E00               	movlw	0
  1228  0014A8  6E43               	movwf	main@j_747^0,c
  1229  0014AA                     l2071:
  1230                           
  1231                           ;main.c: 159:                 LUTData[j] = sawtooth[j];
  1232  0014AA  90D8               	bcf	status,0,c
  1233  0014AC  3443               	rlcf	main@j_747^0,w,c
  1234  0014AE  6ED9               	movwf	fsr2l,c
  1235  0014B0  3444               	rlcf	(main@j_747+1)^0,w,c
  1236  0014B2  6EDA               	movwf	fsr2h,c
  1237  0014B4  0E00               	movlw	low _sawtooth
  1238  0014B6  26D9               	addwf	fsr2l,f,c
  1239  0014B8  0E05               	movlw	high _sawtooth
  1240  0014BA  22DA               	addwfc	fsr2h,f,c
  1241  0014BC  90D8               	bcf	status,0,c
  1242  0014BE  3443               	rlcf	main@j_747^0,w,c
  1243  0014C0  6EE1               	movwf	fsr1l,c
  1244  0014C2  3444               	rlcf	(main@j_747+1)^0,w,c
  1245  0014C4  6EE2               	movwf	fsr1h,c
  1246  0014C6  0E00               	movlw	low _LUTData
  1247  0014C8  26E1               	addwf	fsr1l,f,c
  1248  0014CA  0E01               	movlw	high _LUTData
  1249  0014CC  22E2               	addwfc	fsr1h,f,c
  1250  0014CE  CFDE FFE6          	movff	postinc2,postinc1
  1251  0014D2  CFDD FFE5          	movff	postdec2,postdec1
  1252  0014D6                     
  1253                           ;main.c: 161:             }
  1254  0014D6  4A43               	infsnz	main@j_747^0,f,c
  1255  0014D8  2A44               	incf	(main@j_747+1)^0,f,c
  1256  0014DA  5044               	movf	(main@j_747+1)^0,w,c
  1257  0014DC  E109               	bnz	u1100
  1258  0014DE  0E64               	movlw	100
  1259  0014E0  5C43               	subwf	main@j_747^0,w,c
  1260  0014E2  A0D8               	btfss	status,0,c
  1261  0014E4  EF76  F00A         	goto	u1101
  1262  0014E8  EF78  F00A         	goto	u1100
  1263  0014EC                     u1101:
  1264  0014EC  EF55  F00A         	goto	l2071
  1265  0014F0                     u1100:
  1266  0014F0  EFD7  F00A         	goto	l2109
  1267  0014F4                     l2077:
  1268                           
  1269                           ;main.c: 164:                 DIPValues = PORTAbits.RA0 + PORTAbits.RA1;
  1270  0014F4  B28D               	btfsc	141,1,c	;volatile
  1271  0014F6  EF7F  F00A         	goto	u1111
  1272  0014FA  EF83  F00A         	goto	u1110
  1273  0014FE                     u1111:
  1274  0014FE  6A38               	clrf	??_main^0,c
  1275  001500  2A38               	incf	??_main^0,f,c
  1276  001502  EF84  F00A         	goto	u1118
  1277  001506                     u1110:
  1278  001506  6A38               	clrf	??_main^0,c
  1279  001508                     u1118:
  1280  001508  B08D               	btfsc	141,0,c	;volatile
  1281  00150A  EF89  F00A         	goto	u1121
  1282  00150E  EF8C  F00A         	goto	u1120
  1283  001512                     u1121:
  1284  001512  0E01               	movlw	1
  1285  001514  EF8D  F00A         	goto	u1126
  1286  001518                     u1120:
  1287  001518  0E00               	movlw	0
  1288  00151A                     u1126:
  1289  00151A  2438               	addwf	??_main^0,w,c
  1290  00151C  6E3A               	movwf	main@DIPValues^0,c
  1291  00151E                     
  1292                           ;main.c: 165:                 ADCPeriod = ADCC_GetConversionResult();
  1293  00151E  EC54  F00F         	call	_ADCC_GetConversionResult	;wreg free
  1294  001522  C003  F048         	movff	?_ADCC_GetConversionResult,_ADCPeriod	;volatile
  1295  001526  C004  F049         	movff	?_ADCC_GetConversionResult+1,_ADCPeriod+1	;volatile
  1296  00152A                     
  1297                           ;main.c: 166:                 Period = PeriodCalc(ADCPeriod);
  1298  00152A  C048  F034         	movff	_ADCPeriod,PeriodCalc@ADCVal	;volatile
  1299  00152E  C049  F035         	movff	_ADCPeriod+1,PeriodCalc@ADCVal+1	;volatile
  1300  001532  EC9A  F00E         	call	_PeriodCalc	;wreg free
  1301  001536  C034  F046         	movff	?_PeriodCalc,_Period
  1302  00153A  C035  F047         	movff	?_PeriodCalc+1,_Period+1
  1303  00153E                     
  1304                           ;main.c: 167:                 for(uint16_t i = 0; i < 100; i++){
  1305  00153E  0E00               	movlw	0
  1306  001540  6E3C               	movwf	(main@i+1)^0,c
  1307  001542  0E00               	movlw	0
  1308  001544  6E3B               	movwf	main@i^0,c
  1309  001546                     l2089:
  1310                           
  1311                           ;main.c: 168:                     delayUS(Period);
  1312  001546  C046  F003         	movff	_Period,delayUS@usec
  1313  00154A  C047  F004         	movff	_Period+1,delayUS@usec+1
  1314  00154E  6A05               	clrf	(delayUS@usec+2)^0,c
  1315  001550  6A06               	clrf	(delayUS@usec+3)^0,c
  1316  001552  ECC8  F00E         	call	_delayUS	;wreg free
  1317  001556                     
  1318                           ;main.c: 169:                     OutData = SPIConvertData(LUTData[i]);
  1319  001556  90D8               	bcf	status,0,c
  1320  001558  343B               	rlcf	main@i^0,w,c
  1321  00155A  6ED9               	movwf	fsr2l,c
  1322  00155C  343C               	rlcf	(main@i+1)^0,w,c
  1323  00155E  6EDA               	movwf	fsr2h,c
  1324  001560  0E00               	movlw	low _LUTData
  1325  001562  26D9               	addwf	fsr2l,f,c
  1326  001564  0E01               	movlw	high _LUTData
  1327  001566  22DA               	addwfc	fsr2h,f,c
  1328  001568  CFDE F003          	movff	postinc2,SPIConvertData@Data
  1329  00156C  CFDD F004          	movff	postdec2,SPIConvertData@Data+1
  1330  001570  EC06  F00F         	call	_SPIConvertData	;wreg free
  1331  001574  C003  F04A         	movff	?_SPIConvertData,_OutData
  1332  001578  C004  F04B         	movff	?_SPIConvertData+1,_OutData+1
  1333  00157C                     
  1334                           ;main.c: 170:                     OutDataUpper = (OutData >> 8);
  1335  00157C  504B               	movf	(_OutData+1)^0,w,c
  1336  00157E  6E4D               	movwf	_OutDataUpper^0,c
  1337  001580                     
  1338                           ;main.c: 171:                     OutDataLower = OutData;
  1339  001580  C04A  F04C         	movff	_OutData,_OutDataLower
  1340  001584  9A84               	bcf	132,5,c	;volatile
  1341  001586                     
  1342                           ;main.c: 173:                     SPI1_WriteByte(OutDataUpper);
  1343  001586  504D               	movf	_OutDataUpper^0,w,c
  1344  001588  EC6B  F00F         	call	_SPI1_WriteByte
  1345  00158C                     
  1346                           ;main.c: 174:                     SPI1_WriteByte(OutDataLower);
  1347  00158C  504C               	movf	_OutDataLower^0,w,c
  1348  00158E  EC6B  F00F         	call	_SPI1_WriteByte
  1349  001592  8A84               	bsf	132,5,c	;volatile
  1350  001594                     
  1351                           ;main.c: 176:                 }
  1352  001594  4A3B               	infsnz	main@i^0,f,c
  1353  001596  2A3C               	incf	(main@i+1)^0,f,c
  1354  001598  503C               	movf	(main@i+1)^0,w,c
  1355  00159A  E109               	bnz	u1130
  1356  00159C  0E64               	movlw	100
  1357  00159E  5C3B               	subwf	main@i^0,w,c
  1358  0015A0  A0D8               	btfss	status,0,c
  1359  0015A2  EFD5  F00A         	goto	u1131
  1360  0015A6  EFD7  F00A         	goto	u1130
  1361  0015AA                     u1131:
  1362  0015AA  EFA3  F00A         	goto	l2089
  1363  0015AE                     u1130:
  1364  0015AE                     l2109:
  1365                           
  1366                           ;main.c: 163:             while(DIPValues == OutputSelect){
  1367  0015AE  5045               	movf	main@OutputSelect^0,w,c
  1368  0015B0  183A               	xorwf	main@DIPValues^0,w,c
  1369  0015B2  B4D8               	btfsc	status,2,c
  1370  0015B4  EFDE  F00A         	goto	u1141
  1371  0015B8  EFE0  F00A         	goto	u1140
  1372  0015BC                     u1141:
  1373  0015BC  EF7A  F00A         	goto	l2077
  1374  0015C0                     u1140:
  1375  0015C0  EFA0  F009         	goto	l2017
  1376  0015C4  EF27  F000         	goto	start
  1377  0015C8                     __end_of_main:
  1378                           	callstack 0
  1379                           
  1380 ;; *************** function _delayUS *****************
  1381 ;; Defined at:
  1382 ;;		line 191 in file "main.c"
  1383 ;; Parameters:    Size  Location     Type
  1384 ;;  usec            4    2[COMRAM] unsigned long 
  1385 ;; Auto vars:     Size  Location     Type
  1386 ;;  i               4    6[COMRAM] unsigned long 
  1387 ;; Return value:  Size  Location     Type
  1388 ;;                  1    wreg      void 
  1389 ;; Registers used:
  1390 ;;		wreg, status,2, status,0
  1391 ;; Tracked objects:
  1392 ;;		On entry : 0/0
  1393 ;;		On exit  : 0/0
  1394 ;;		Unchanged: 0/0
  1395 ;; Data sizes:     COMRAM   BANK0   BANK1   BANK2   BANK3   BANK4   BANK5   BANK6   BANK7   BANK8   BANK9  BANK10  BANK1
      +1  BANK12  BANK13  BANK14
  1396 ;;      Params:         4       0       0       0       0       0       0       0       0       0       0       0       
      +0       0       0       0
  1397 ;;      Locals:         4       0       0       0       0       0       0       0       0       0       0       0       
      +0       0       0       0
  1398 ;;      Temps:          0       0       0       0       0       0       0       0       0       0       0       0       
      +0       0       0       0
  1399 ;;      Totals:         8       0       0       0       0       0       0       0       0       0       0       0       
      +0       0       0       0
  1400 ;;Total ram usage:        8 bytes
  1401 ;; Hardware stack levels used: 1
  1402 ;; Hardware stack levels required when called: 3
  1403 ;; This function calls:
  1404 ;;		Nothing
  1405 ;; This function is called by:
  1406 ;;		_main
  1407 ;; This function uses a non-reentrant model
  1408 ;;
  1409                           
  1410                           	psect	text1
  1411  001D90                     __ptext1:
  1412                           	callstack 0
  1413  001D90                     _delayUS:
  1414                           	callstack 27
  1415  001D90                     
  1416                           ;main.c: 192:   for(uint32_t i=0;i<usec;i++){
  1417  001D90  0E00               	movlw	0
  1418  001D92  6E07               	movwf	delayUS@i^0,c
  1419  001D94  0E00               	movlw	0
  1420  001D96  6E08               	movwf	(delayUS@i+1)^0,c
  1421  001D98  0E00               	movlw	0
  1422  001D9A  6E09               	movwf	(delayUS@i+2)^0,c
  1423  001D9C  0E00               	movlw	0
  1424  001D9E  6E0A               	movwf	(delayUS@i+3)^0,c
  1425  001DA0  EFDC  F00E         	goto	l450
  1426  001DA4                     l451:
  1427                           
  1428                           ;main.c: 193:     _delay((unsigned long)((1)*(32000000/4000000.0)));
  1429  001DA4  D000               	nop2		;2 cycle nop
  1430  001DA6  D000               	nop2		;2 cycle nop
  1431  001DA8  D000               	nop2		;2 cycle nop
  1432  001DAA  D000               	nop2		;2 cycle nop
  1433  001DAC                     
  1434                           ;main.c: 194:   }
  1435  001DAC  0E01               	movlw	1
  1436  001DAE  2607               	addwf	delayUS@i^0,f,c
  1437  001DB0  0E00               	movlw	0
  1438  001DB2  2208               	addwfc	(delayUS@i+1)^0,f,c
  1439  001DB4  2209               	addwfc	(delayUS@i+2)^0,f,c
  1440  001DB6  220A               	addwfc	(delayUS@i+3)^0,f,c
  1441  001DB8                     l450:
  1442  001DB8  5003               	movf	delayUS@usec^0,w,c
  1443  001DBA  5C07               	subwf	delayUS@i^0,w,c
  1444  001DBC  5004               	movf	(delayUS@usec+1)^0,w,c
  1445  001DBE  5808               	subwfb	(delayUS@i+1)^0,w,c
  1446  001DC0  5005               	movf	(delayUS@usec+2)^0,w,c
  1447  001DC2  5809               	subwfb	(delayUS@i+2)^0,w,c
  1448  001DC4  5006               	movf	(delayUS@usec+3)^0,w,c
  1449  001DC6  580A               	subwfb	(delayUS@i+3)^0,w,c
  1450  001DC8  A0D8               	btfss	status,0,c
  1451  001DCA  EFE9  F00E         	goto	u1001
  1452  001DCE  EFEB  F00E         	goto	u1000
  1453  001DD2                     u1001:
  1454  001DD2  EFD2  F00E         	goto	l451
  1455  001DD6                     u1000:
  1456  001DD6  0012               	return		;funcret
  1457  001DD8                     __end_of_delayUS:
  1458                           	callstack 0
  1459                           
  1460 ;; *************** function _SYSTEM_Initialize *****************
  1461 ;; Defined at:
  1462 ;;		line 50 in file "mcc_generated_files/mcc.c"
  1463 ;; Parameters:    Size  Location     Type
  1464 ;;		None
  1465 ;; Auto vars:     Size  Location     Type
  1466 ;;		None
  1467 ;; Return value:  Size  Location     Type
  1468 ;;                  1    wreg      void 
  1469 ;; Registers used:
  1470 ;;		wreg, status,2, status,0, cstack
  1471 ;; Tracked objects:
  1472 ;;		On entry : 0/0
  1473 ;;		On exit  : 0/0
  1474 ;;		Unchanged: 0/0
  1475 ;; Data sizes:     COMRAM   BANK0   BANK1   BANK2   BANK3   BANK4   BANK5   BANK6   BANK7   BANK8   BANK9  BANK10  BANK1
      +1  BANK12  BANK13  BANK14
  1476 ;;      Params:         0       0       0       0       0       0       0       0       0       0       0       0       
      +0       0       0       0
  1477 ;;      Locals:         0       0       0       0       0       0       0       0       0       0       0       0       
      +0       0       0       0
  1478 ;;      Temps:          0       0       0       0       0       0       0       0       0       0       0       0       
      +0       0       0       0
  1479 ;;      Totals:         0       0       0       0       0       0       0       0       0       0       0       0       
      +0       0       0       0
  1480 ;;Total ram usage:        0 bytes
  1481 ;; Hardware stack levels used: 1
  1482 ;; Hardware stack levels required when called: 5
  1483 ;; This function calls:
  1484 ;;		_ADCC_Initialize
  1485 ;;		_INTERRUPT_Initialize
  1486 ;;		_OSCILLATOR_Initialize
  1487 ;;		_PIN_MANAGER_Initialize
  1488 ;;		_PMD_Initialize
  1489 ;;		_SPI1_Initialize
  1490 ;; This function is called by:
  1491 ;;		_main
  1492 ;; This function uses a non-reentrant model
  1493 ;;
  1494                           
  1495                           	psect	text2
  1496  001E76                     __ptext2:
  1497                           	callstack 0
  1498  001E76                     _SYSTEM_Initialize:
  1499                           	callstack 25
  1500  001E76                     
  1501                           ;mcc_generated_files/mcc.c: 52:     INTERRUPT_Initialize();
  1502  001E76  EC6F  F00F         	call	_INTERRUPT_Initialize	;wreg free
  1503  001E7A                     
  1504                           ;mcc_generated_files/mcc.c: 53:     PMD_Initialize();
  1505  001E7A  EC2D  F00F         	call	_PMD_Initialize	;wreg free
  1506  001E7E                     
  1507                           ;mcc_generated_files/mcc.c: 54:     SPI1_Initialize();
  1508  001E7E  EC1B  F00F         	call	_SPI1_Initialize	;wreg free
  1509  001E82                     
  1510                           ;mcc_generated_files/mcc.c: 55:     PIN_MANAGER_Initialize();
  1511  001E82  EC22  F00E         	call	_PIN_MANAGER_Initialize	;wreg free
  1512  001E86                     
  1513                           ;mcc_generated_files/mcc.c: 56:     OSCILLATOR_Initialize();
  1514  001E86  EC48  F00F         	call	_OSCILLATOR_Initialize	;wreg free
  1515  001E8A                     
  1516                           ;mcc_generated_files/mcc.c: 57:     ADCC_Initialize();
  1517  001E8A  EC67  F00E         	call	_ADCC_Initialize	;wreg free
  1518  001E8E  0012               	return		;funcret
  1519  001E90                     __end_of_SYSTEM_Initialize:
  1520                           	callstack 0
  1521                           
  1522 ;; *************** function _SPI1_Initialize *****************
  1523 ;; Defined at:
  1524 ;;		line 62 in file "mcc_generated_files/spi1.c"
  1525 ;; Parameters:    Size  Location     Type
  1526 ;;		None
  1527 ;; Auto vars:     Size  Location     Type
  1528 ;;		None
  1529 ;; Return value:  Size  Location     Type
  1530 ;;                  1    wreg      void 
  1531 ;; Registers used:
  1532 ;;		wreg, status,2
  1533 ;; Tracked objects:
  1534 ;;		On entry : 0/0
  1535 ;;		On exit  : 0/0
  1536 ;;		Unchanged: 0/0
  1537 ;; Data sizes:     COMRAM   BANK0   BANK1   BANK2   BANK3   BANK4   BANK5   BANK6   BANK7   BANK8   BANK9  BANK10  BANK1
      +1  BANK12  BANK13  BANK14
  1538 ;;      Params:         0       0       0       0       0       0       0       0       0       0       0       0       
      +0       0       0       0
  1539 ;;      Locals:         0       0       0       0       0       0       0       0       0       0       0       0       
      +0       0       0       0
  1540 ;;      Temps:          0       0       0       0       0       0       0       0       0       0       0       0       
      +0       0       0       0
  1541 ;;      Totals:         0       0       0       0       0       0       0       0       0       0       0       0       
      +0       0       0       0
  1542 ;;Total ram usage:        0 bytes
  1543 ;; Hardware stack levels used: 1
  1544 ;; Hardware stack levels required when called: 3
  1545 ;; This function calls:
  1546 ;;		Nothing
  1547 ;; This function is called by:
  1548 ;;		_SYSTEM_Initialize
  1549 ;; This function uses a non-reentrant model
  1550 ;;
  1551                           
  1552                           	psect	text3
  1553  001E36                     __ptext3:
  1554                           	callstack 0
  1555  001E36                     _SPI1_Initialize:
  1556                           	callstack 26
  1557  001E36                     
  1558                           ;mcc_generated_files/spi1.c: 65:     SSP1CLKPPS = 16;
  1559  001E36  0E10               	movlw	16
  1560  001E38  010E               	movlb	14	; () banked
  1561  001E3A  6FB7               	movwf	183,b	;volatile
  1562                           
  1563                           ;mcc_generated_files/spi1.c: 66:     SSP1DATPPS = 18;
  1564  001E3C  0E12               	movlw	18
  1565  001E3E  6FB8               	movwf	184,b	;volatile
  1566                           
  1567                           ;mcc_generated_files/spi1.c: 67:     RC0PPS = 15;
  1568  001E40  0E0F               	movlw	15
  1569  001E42  6FF7               	movwf	247,b	;volatile
  1570                           
  1571                           ;mcc_generated_files/spi1.c: 68:     RC1PPS = 16;
  1572  001E44  0E10               	movlw	16
  1573  001E46  6FF8               	movwf	248,b	;volatile
  1574                           
  1575                           ;mcc_generated_files/spi1.c: 70:     SSP1STAT = 0x40;
  1576  001E48  0E40               	movlw	64
  1577  001E4A  6E95               	movwf	149,c	;volatile
  1578                           
  1579                           ;mcc_generated_files/spi1.c: 71:     SSP1CON1 = 0x00;
  1580  001E4C  0E00               	movlw	0
  1581  001E4E  6E96               	movwf	150,c	;volatile
  1582                           
  1583                           ;mcc_generated_files/spi1.c: 72:     SSP1ADD = 0x01;
  1584  001E50  0E01               	movlw	1
  1585  001E52  6E93               	movwf	147,c	;volatile
  1586  001E54                     
  1587                           ; BSR set to: 14
  1588                           ;mcc_generated_files/spi1.c: 73:     TRISCbits.TRISC0 = 0;
  1589  001E54  908A               	bcf	138,0,c	;volatile
  1590  001E56                     
  1591                           ; BSR set to: 14
  1592                           ;mcc_generated_files/spi1.c: 74:     SSP1CON1bits.SSPEN = 0;
  1593  001E56  9A96               	bcf	150,5,c	;volatile
  1594  001E58                     
  1595                           ; BSR set to: 14
  1596  001E58  0012               	return		;funcret
  1597  001E5A                     __end_of_SPI1_Initialize:
  1598                           	callstack 0
  1599                           
  1600 ;; *************** function _PMD_Initialize *****************
  1601 ;; Defined at:
  1602 ;;		line 74 in file "mcc_generated_files/mcc.c"
  1603 ;; Parameters:    Size  Location     Type
  1604 ;;		None
  1605 ;; Auto vars:     Size  Location     Type
  1606 ;;		None
  1607 ;; Return value:  Size  Location     Type
  1608 ;;                  1    wreg      void 
  1609 ;; Registers used:
  1610 ;;		wreg, status,2
  1611 ;; Tracked objects:
  1612 ;;		On entry : 0/0
  1613 ;;		On exit  : 0/0
  1614 ;;		Unchanged: 0/0
  1615 ;; Data sizes:     COMRAM   BANK0   BANK1   BANK2   BANK3   BANK4   BANK5   BANK6   BANK7   BANK8   BANK9  BANK10  BANK1
      +1  BANK12  BANK13  BANK14
  1616 ;;      Params:         0       0       0       0       0       0       0       0       0       0       0       0       
      +0       0       0       0
  1617 ;;      Locals:         0       0       0       0       0       0       0       0       0       0       0       0       
      +0       0       0       0
  1618 ;;      Temps:          0       0       0       0       0       0       0       0       0       0       0       0       
      +0       0       0       0
  1619 ;;      Totals:         0       0       0       0       0       0       0       0       0       0       0       0       
      +0       0       0       0
  1620 ;;Total ram usage:        0 bytes
  1621 ;; Hardware stack levels used: 1
  1622 ;; Hardware stack levels required when called: 3
  1623 ;; This function calls:
  1624 ;;		Nothing
  1625 ;; This function is called by:
  1626 ;;		_SYSTEM_Initialize
  1627 ;; This function uses a non-reentrant model
  1628 ;;
  1629                           
  1630                           	psect	text4
  1631  001E5A                     __ptext4:
  1632                           	callstack 0
  1633  001E5A                     _PMD_Initialize:
  1634                           	callstack 26
  1635  001E5A                     
  1636                           ;mcc_generated_files/mcc.c: 77:     PMD0 = 0x00;
  1637  001E5A  0E00               	movlw	0
  1638  001E5C  010E               	movlb	14	; () banked
  1639  001E5E  6FE1               	movwf	225,b	;volatile
  1640                           
  1641                           ;mcc_generated_files/mcc.c: 79:     PMD1 = 0x00;
  1642  001E60  0E00               	movlw	0
  1643  001E62  6FE2               	movwf	226,b	;volatile
  1644                           
  1645                           ;mcc_generated_files/mcc.c: 81:     PMD2 = 0x00;
  1646  001E64  0E00               	movlw	0
  1647  001E66  6FE3               	movwf	227,b	;volatile
  1648                           
  1649                           ;mcc_generated_files/mcc.c: 83:     PMD3 = 0x00;
  1650  001E68  0E00               	movlw	0
  1651  001E6A  6FE4               	movwf	228,b	;volatile
  1652                           
  1653                           ;mcc_generated_files/mcc.c: 85:     PMD4 = 0x00;
  1654  001E6C  0E00               	movlw	0
  1655  001E6E  6FE5               	movwf	229,b	;volatile
  1656                           
  1657                           ;mcc_generated_files/mcc.c: 87:     PMD5 = 0x00;
  1658  001E70  0E00               	movlw	0
  1659  001E72  6FE6               	movwf	230,b	;volatile
  1660  001E74                     
  1661                           ; BSR set to: 14
  1662  001E74  0012               	return		;funcret
  1663  001E76                     __end_of_PMD_Initialize:
  1664                           	callstack 0
  1665                           
  1666 ;; *************** function _PIN_MANAGER_Initialize *****************
  1667 ;; Defined at:
  1668 ;;		line 55 in file "mcc_generated_files/pin_manager.c"
  1669 ;; Parameters:    Size  Location     Type
  1670 ;;		None
  1671 ;; Auto vars:     Size  Location     Type
  1672 ;;		None
  1673 ;; Return value:  Size  Location     Type
  1674 ;;                  1    wreg      void 
  1675 ;; Registers used:
  1676 ;;		wreg, status,2
  1677 ;; Tracked objects:
  1678 ;;		On entry : 0/0
  1679 ;;		On exit  : 0/0
  1680 ;;		Unchanged: 0/0
  1681 ;; Data sizes:     COMRAM   BANK0   BANK1   BANK2   BANK3   BANK4   BANK5   BANK6   BANK7   BANK8   BANK9  BANK10  BANK1
      +1  BANK12  BANK13  BANK14
  1682 ;;      Params:         0       0       0       0       0       0       0       0       0       0       0       0       
      +0       0       0       0
  1683 ;;      Locals:         0       0       0       0       0       0       0       0       0       0       0       0       
      +0       0       0       0
  1684 ;;      Temps:          0       0       0       0       0       0       0       0       0       0       0       0       
      +0       0       0       0
  1685 ;;      Totals:         0       0       0       0       0       0       0       0       0       0       0       0       
      +0       0       0       0
  1686 ;;Total ram usage:        0 bytes
  1687 ;; Hardware stack levels used: 1
  1688 ;; Hardware stack levels required when called: 3
  1689 ;; This function calls:
  1690 ;;		Nothing
  1691 ;; This function is called by:
  1692 ;;		_SYSTEM_Initialize
  1693 ;; This function uses a non-reentrant model
  1694 ;;
  1695                           
  1696                           	psect	text5
  1697  001C44                     __ptext5:
  1698                           	callstack 0
  1699  001C44                     _PIN_MANAGER_Initialize:
  1700                           	callstack 26
  1701  001C44                     
  1702                           ;mcc_generated_files/pin_manager.c: 60:     LATE = 0x00;
  1703  001C44  0E00               	movlw	0
  1704  001C46  6E87               	movwf	135,c	;volatile
  1705                           
  1706                           ;mcc_generated_files/pin_manager.c: 61:     LATD = 0x00;
  1707  001C48  0E00               	movlw	0
  1708  001C4A  6E86               	movwf	134,c	;volatile
  1709                           
  1710                           ;mcc_generated_files/pin_manager.c: 62:     LATA = 0x00;
  1711  001C4C  0E00               	movlw	0
  1712  001C4E  6E83               	movwf	131,c	;volatile
  1713                           
  1714                           ;mcc_generated_files/pin_manager.c: 63:     LATB = 0x20;
  1715  001C50  0E20               	movlw	32
  1716  001C52  6E84               	movwf	132,c	;volatile
  1717                           
  1718                           ;mcc_generated_files/pin_manager.c: 64:     LATC = 0x00;
  1719  001C54  0E00               	movlw	0
  1720  001C56  6E85               	movwf	133,c	;volatile
  1721                           
  1722                           ;mcc_generated_files/pin_manager.c: 69:     TRISE = 0x07;
  1723  001C58  0E07               	movlw	7
  1724  001C5A  6E8C               	movwf	140,c	;volatile
  1725  001C5C                     
  1726                           ;mcc_generated_files/pin_manager.c: 70:     TRISA = 0xFF;
  1727  001C5C  6888               	setf	136,c	;volatile
  1728                           
  1729                           ;mcc_generated_files/pin_manager.c: 71:     TRISB = 0xDF;
  1730  001C5E  0EDF               	movlw	223
  1731  001C60  6E89               	movwf	137,c	;volatile
  1732                           
  1733                           ;mcc_generated_files/pin_manager.c: 72:     TRISC = 0xFC;
  1734  001C62  0EFC               	movlw	252
  1735  001C64  6E8A               	movwf	138,c	;volatile
  1736  001C66                     
  1737                           ;mcc_generated_files/pin_manager.c: 73:     TRISD = 0xFF;
  1738  001C66  688B               	setf	139,c	;volatile
  1739  001C68                     
  1740                           ;mcc_generated_files/pin_manager.c: 78:     ANSELD = 0xFF;
  1741  001C68  010F               	movlb	15	; () banked
  1742  001C6A  6926               	setf	38,b	;volatile
  1743                           
  1744                           ;mcc_generated_files/pin_manager.c: 79:     ANSELC = 0xFA;
  1745  001C6C  0EFA               	movlw	250
  1746  001C6E  6F21               	movwf	33,b	;volatile
  1747  001C70                     
  1748                           ; BSR set to: 15
  1749                           ;mcc_generated_files/pin_manager.c: 80:     ANSELB = 0xFF;
  1750  001C70  6919               	setf	25,b	;volatile
  1751                           
  1752                           ;mcc_generated_files/pin_manager.c: 81:     ANSELE = 0x07;
  1753  001C72  0E07               	movlw	7
  1754  001C74  6F2E               	movwf	46,b	;volatile
  1755                           
  1756                           ;mcc_generated_files/pin_manager.c: 82:     ANSELA = 0xFC;
  1757  001C76  0EFC               	movlw	252
  1758  001C78  6F11               	movwf	17,b	;volatile
  1759                           
  1760                           ;mcc_generated_files/pin_manager.c: 87:     WPUD = 0x00;
  1761  001C7A  0E00               	movlw	0
  1762  001C7C  6F25               	movwf	37,b	;volatile
  1763                           
  1764                           ;mcc_generated_files/pin_manager.c: 88:     WPUE = 0x00;
  1765  001C7E  0E00               	movlw	0
  1766  001C80  6F2D               	movwf	45,b	;volatile
  1767                           
  1768                           ;mcc_generated_files/pin_manager.c: 89:     WPUB = 0x00;
  1769  001C82  0E00               	movlw	0
  1770  001C84  6F18               	movwf	24,b	;volatile
  1771                           
  1772                           ;mcc_generated_files/pin_manager.c: 90:     WPUA = 0x00;
  1773  001C86  0E00               	movlw	0
  1774  001C88  6F10               	movwf	16,b	;volatile
  1775                           
  1776                           ;mcc_generated_files/pin_manager.c: 91:     WPUC = 0x00;
  1777  001C8A  0E00               	movlw	0
  1778  001C8C  6F20               	movwf	32,b	;volatile
  1779                           
  1780                           ;mcc_generated_files/pin_manager.c: 96:     ODCONE = 0x00;
  1781  001C8E  0E00               	movlw	0
  1782  001C90  6F2C               	movwf	44,b	;volatile
  1783                           
  1784                           ;mcc_generated_files/pin_manager.c: 97:     ODCONA = 0x00;
  1785  001C92  0E00               	movlw	0
  1786  001C94  6F0F               	movwf	15,b	;volatile
  1787                           
  1788                           ;mcc_generated_files/pin_manager.c: 98:     ODCONB = 0x00;
  1789  001C96  0E00               	movlw	0
  1790  001C98  6F17               	movwf	23,b	;volatile
  1791                           
  1792                           ;mcc_generated_files/pin_manager.c: 99:     ODCONC = 0x00;
  1793  001C9A  0E00               	movlw	0
  1794  001C9C  6F1F               	movwf	31,b	;volatile
  1795                           
  1796                           ;mcc_generated_files/pin_manager.c: 100:     ODCOND = 0x00;
  1797  001C9E  0E00               	movlw	0
  1798  001CA0  6F24               	movwf	36,b	;volatile
  1799  001CA2                     
  1800                           ; BSR set to: 15
  1801                           ;mcc_generated_files/pin_manager.c: 105:     SLRCONA = 0xFF;
  1802  001CA2  690E               	setf	14,b	;volatile
  1803  001CA4                     
  1804                           ; BSR set to: 15
  1805                           ;mcc_generated_files/pin_manager.c: 106:     SLRCONB = 0xFF;
  1806  001CA4  6916               	setf	22,b	;volatile
  1807  001CA6                     
  1808                           ; BSR set to: 15
  1809                           ;mcc_generated_files/pin_manager.c: 107:     SLRCONC = 0xFF;
  1810  001CA6  691E               	setf	30,b	;volatile
  1811  001CA8                     
  1812                           ; BSR set to: 15
  1813                           ;mcc_generated_files/pin_manager.c: 108:     SLRCOND = 0xFF;
  1814  001CA8  6923               	setf	35,b	;volatile
  1815                           
  1816                           ;mcc_generated_files/pin_manager.c: 109:     SLRCONE = 0x07;
  1817  001CAA  0E07               	movlw	7
  1818  001CAC  6F2B               	movwf	43,b	;volatile
  1819  001CAE                     
  1820                           ; BSR set to: 15
  1821                           ;mcc_generated_files/pin_manager.c: 114:     INLVLA = 0xFF;
  1822  001CAE  690D               	setf	13,b	;volatile
  1823  001CB0                     
  1824                           ; BSR set to: 15
  1825                           ;mcc_generated_files/pin_manager.c: 115:     INLVLB = 0xFF;
  1826  001CB0  6915               	setf	21,b	;volatile
  1827  001CB2                     
  1828                           ; BSR set to: 15
  1829                           ;mcc_generated_files/pin_manager.c: 116:     INLVLC = 0xFF;
  1830  001CB2  691D               	setf	29,b	;volatile
  1831  001CB4                     
  1832                           ; BSR set to: 15
  1833                           ;mcc_generated_files/pin_manager.c: 117:     INLVLD = 0xFF;
  1834  001CB4  6922               	setf	34,b	;volatile
  1835                           
  1836                           ;mcc_generated_files/pin_manager.c: 118:     INLVLE = 0x0F;
  1837  001CB6  0E0F               	movlw	15
  1838  001CB8  6F2A               	movwf	42,b	;volatile
  1839                           
  1840                           ;mcc_generated_files/pin_manager.c: 127:     RC0PPS = 0x0F;
  1841  001CBA  0E0F               	movlw	15
  1842  001CBC  010E               	movlb	14	; () banked
  1843  001CBE  6FF7               	movwf	247,b	;volatile
  1844                           
  1845                           ;mcc_generated_files/pin_manager.c: 128:     SSP1CLKPPS = 0x10;
  1846  001CC0  0E10               	movlw	16
  1847  001CC2  6FB7               	movwf	183,b	;volatile
  1848                           
  1849                           ;mcc_generated_files/pin_manager.c: 129:     RC1PPS = 0x10;
  1850  001CC4  0E10               	movlw	16
  1851  001CC6  6FF8               	movwf	248,b	;volatile
  1852                           
  1853                           ;mcc_generated_files/pin_manager.c: 130:     SSP1DATPPS = 0x12;
  1854  001CC8  0E12               	movlw	18
  1855  001CCA  6FB8               	movwf	184,b	;volatile
  1856  001CCC                     
  1857                           ; BSR set to: 14
  1858  001CCC  0012               	return		;funcret
  1859  001CCE                     __end_of_PIN_MANAGER_Initialize:
  1860                           	callstack 0
  1861                           
  1862 ;; *************** function _OSCILLATOR_Initialize *****************
  1863 ;; Defined at:
  1864 ;;		line 60 in file "mcc_generated_files/mcc.c"
  1865 ;; Parameters:    Size  Location     Type
  1866 ;;		None
  1867 ;; Auto vars:     Size  Location     Type
  1868 ;;		None
  1869 ;; Return value:  Size  Location     Type
  1870 ;;                  1    wreg      void 
  1871 ;; Registers used:
  1872 ;;		wreg, status,2
  1873 ;; Tracked objects:
  1874 ;;		On entry : 0/0
  1875 ;;		On exit  : 0/0
  1876 ;;		Unchanged: 0/0
  1877 ;; Data sizes:     COMRAM   BANK0   BANK1   BANK2   BANK3   BANK4   BANK5   BANK6   BANK7   BANK8   BANK9  BANK10  BANK1
      +1  BANK12  BANK13  BANK14
  1878 ;;      Params:         0       0       0       0       0       0       0       0       0       0       0       0       
      +0       0       0       0
  1879 ;;      Locals:         0       0       0       0       0       0       0       0       0       0       0       0       
      +0       0       0       0
  1880 ;;      Temps:          0       0       0       0       0       0       0       0       0       0       0       0       
      +0       0       0       0
  1881 ;;      Totals:         0       0       0       0       0       0       0       0       0       0       0       0       
      +0       0       0       0
  1882 ;;Total ram usage:        0 bytes
  1883 ;; Hardware stack levels used: 1
  1884 ;; Hardware stack levels required when called: 3
  1885 ;; This function calls:
  1886 ;;		Nothing
  1887 ;; This function is called by:
  1888 ;;		_SYSTEM_Initialize
  1889 ;; This function uses a non-reentrant model
  1890 ;;
  1891                           
  1892                           	psect	text6
  1893  001E90                     __ptext6:
  1894                           	callstack 0
  1895  001E90                     _OSCILLATOR_Initialize:
  1896                           	callstack 26
  1897  001E90                     
  1898                           ;mcc_generated_files/mcc.c: 63:     OSCCON1 = 0x60;
  1899  001E90  0E60               	movlw	96
  1900  001E92  010E               	movlb	14	; () banked
  1901  001E94  6FD8               	movwf	216,b	;volatile
  1902                           
  1903                           ;mcc_generated_files/mcc.c: 65:     OSCCON3 = 0x00;
  1904  001E96  0E00               	movlw	0
  1905  001E98  6FDA               	movwf	218,b	;volatile
  1906                           
  1907                           ;mcc_generated_files/mcc.c: 67:     OSCEN = 0x00;
  1908  001E9A  0E00               	movlw	0
  1909  001E9C  6FDC               	movwf	220,b	;volatile
  1910                           
  1911                           ;mcc_generated_files/mcc.c: 69:     OSCFRQ = 0x06;
  1912  001E9E  0E06               	movlw	6
  1913  001EA0  6FDE               	movwf	222,b	;volatile
  1914                           
  1915                           ;mcc_generated_files/mcc.c: 71:     OSCTUNE = 0x00;
  1916  001EA2  0E00               	movlw	0
  1917  001EA4  6FDD               	movwf	221,b	;volatile
  1918  001EA6                     
  1919                           ; BSR set to: 14
  1920  001EA6  0012               	return		;funcret
  1921  001EA8                     __end_of_OSCILLATOR_Initialize:
  1922                           	callstack 0
  1923                           
  1924 ;; *************** function _INTERRUPT_Initialize *****************
  1925 ;; Defined at:
  1926 ;;		line 52 in file "mcc_generated_files/interrupt_manager.c"
  1927 ;; Parameters:    Size  Location     Type
  1928 ;;		None
  1929 ;; Auto vars:     Size  Location     Type
  1930 ;;		None
  1931 ;; Return value:  Size  Location     Type
  1932 ;;                  1    wreg      void 
  1933 ;; Registers used:
  1934 ;;		None
  1935 ;; Tracked objects:
  1936 ;;		On entry : 0/0
  1937 ;;		On exit  : 0/0
  1938 ;;		Unchanged: 0/0
  1939 ;; Data sizes:     COMRAM   BANK0   BANK1   BANK2   BANK3   BANK4   BANK5   BANK6   BANK7   BANK8   BANK9  BANK10  BANK1
      +1  BANK12  BANK13  BANK14
  1940 ;;      Params:         0       0       0       0       0       0       0       0       0       0       0       0       
      +0       0       0       0
  1941 ;;      Locals:         0       0       0       0       0       0       0       0       0       0       0       0       
      +0       0       0       0
  1942 ;;      Temps:          0       0       0       0       0       0       0       0       0       0       0       0       
      +0       0       0       0
  1943 ;;      Totals:         0       0       0       0       0       0       0       0       0       0       0       0       
      +0       0       0       0
  1944 ;;Total ram usage:        0 bytes
  1945 ;; Hardware stack levels used: 1
  1946 ;; Hardware stack levels required when called: 3
  1947 ;; This function calls:
  1948 ;;		Nothing
  1949 ;; This function is called by:
  1950 ;;		_SYSTEM_Initialize
  1951 ;; This function uses a non-reentrant model
  1952 ;;
  1953                           
  1954                           	psect	text7
  1955  001EDE                     __ptext7:
  1956                           	callstack 0
  1957  001EDE                     _INTERRUPT_Initialize:
  1958                           	callstack 26
  1959  001EDE                     
  1960                           ;mcc_generated_files/interrupt_manager.c: 55:     INTCONbits.IPEN = 0;
  1961  001EDE  9AF2               	bcf	242,5,c	;volatile
  1962  001EE0  0012               	return		;funcret
  1963  001EE2                     __end_of_INTERRUPT_Initialize:
  1964                           	callstack 0
  1965                           
  1966 ;; *************** function _ADCC_Initialize *****************
  1967 ;; Defined at:
  1968 ;;		line 63 in file "mcc_generated_files/adcc.c"
  1969 ;; Parameters:    Size  Location     Type
  1970 ;;		None
  1971 ;; Auto vars:     Size  Location     Type
  1972 ;;		None
  1973 ;; Return value:  Size  Location     Type
  1974 ;;                  1    wreg      void 
  1975 ;; Registers used:
  1976 ;;		wreg, status,2, status,0, cstack
  1977 ;; Tracked objects:
  1978 ;;		On entry : 0/0
  1979 ;;		On exit  : 0/0
  1980 ;;		Unchanged: 0/0
  1981 ;; Data sizes:     COMRAM   BANK0   BANK1   BANK2   BANK3   BANK4   BANK5   BANK6   BANK7   BANK8   BANK9  BANK10  BANK1
      +1  BANK12  BANK13  BANK14
  1982 ;;      Params:         0       0       0       0       0       0       0       0       0       0       0       0       
      +0       0       0       0
  1983 ;;      Locals:         0       0       0       0       0       0       0       0       0       0       0       0       
      +0       0       0       0
  1984 ;;      Temps:          0       0       0       0       0       0       0       0       0       0       0       0       
      +0       0       0       0
  1985 ;;      Totals:         0       0       0       0       0       0       0       0       0       0       0       0       
      +0       0       0       0
  1986 ;;Total ram usage:        0 bytes
  1987 ;; Hardware stack levels used: 1
  1988 ;; Hardware stack levels required when called: 4
  1989 ;; This function calls:
  1990 ;;		_ADCC_SetADIInterruptHandler
  1991 ;; This function is called by:
  1992 ;;		_SYSTEM_Initialize
  1993 ;; This function uses a non-reentrant model
  1994 ;;
  1995                           
  1996                           	psect	text8
  1997  001CCE                     __ptext8:
  1998                           	callstack 0
  1999  001CCE                     _ADCC_Initialize:
  2000                           	callstack 25
  2001  001CCE                     
  2002                           ;mcc_generated_files/adcc.c: 67:     ADLTHL = 0x00;
  2003  001CCE  0E00               	movlw	0
  2004  001CD0  6E6A               	movwf	106,c	;volatile
  2005                           
  2006                           ;mcc_generated_files/adcc.c: 69:     ADLTHH = 0x00;
  2007  001CD2  0E00               	movlw	0
  2008  001CD4  6E6B               	movwf	107,c	;volatile
  2009                           
  2010                           ;mcc_generated_files/adcc.c: 71:     ADUTHL = 0x00;
  2011  001CD6  0E00               	movlw	0
  2012  001CD8  6E6C               	movwf	108,c	;volatile
  2013                           
  2014                           ;mcc_generated_files/adcc.c: 73:     ADUTHH = 0x00;
  2015  001CDA  0E00               	movlw	0
  2016  001CDC  6E6D               	movwf	109,c	;volatile
  2017                           
  2018                           ;mcc_generated_files/adcc.c: 75:     ADSTPTL = 0x00;
  2019  001CDE  0E00               	movlw	0
  2020  001CE0  6E68               	movwf	104,c	;volatile
  2021                           
  2022                           ;mcc_generated_files/adcc.c: 77:     ADSTPTH = 0x00;
  2023  001CE2  0E00               	movlw	0
  2024  001CE4  6E69               	movwf	105,c	;volatile
  2025                           
  2026                           ;mcc_generated_files/adcc.c: 79:     ADRPT = 0x00;
  2027  001CE6  0E00               	movlw	0
  2028  001CE8  6E66               	movwf	102,c	;volatile
  2029                           
  2030                           ;mcc_generated_files/adcc.c: 81:     ADPCH = 0x00;
  2031  001CEA  0E00               	movlw	0
  2032  001CEC  010F               	movlb	15	; () banked
  2033  001CEE  6F5F               	movwf	95,b	;volatile
  2034                           
  2035                           ;mcc_generated_files/adcc.c: 83:     ADCAP = 0x00;
  2036  001CF0  0E00               	movlw	0
  2037  001CF2  6F5D               	movwf	93,b	;volatile
  2038                           
  2039                           ;mcc_generated_files/adcc.c: 85:     ADPRE = 0x00;
  2040  001CF4  0E00               	movlw	0
  2041  001CF6  6F5E               	movwf	94,b	;volatile
  2042                           
  2043                           ;mcc_generated_files/adcc.c: 87:     ADCON1 = 0x00;
  2044  001CF8  0E00               	movlw	0
  2045  001CFA  6F59               	movwf	89,b	;volatile
  2046                           
  2047                           ;mcc_generated_files/adcc.c: 89:     ADCON2 = 0x00;
  2048  001CFC  0E00               	movlw	0
  2049  001CFE  6F5A               	movwf	90,b	;volatile
  2050                           
  2051                           ;mcc_generated_files/adcc.c: 91:     ADCON3 = 0x00;
  2052  001D00  0E00               	movlw	0
  2053  001D02  6F5B               	movwf	91,b	;volatile
  2054                           
  2055                           ;mcc_generated_files/adcc.c: 93:     ADSTAT = 0x00;
  2056  001D04  0E00               	movlw	0
  2057  001D06  6E65               	movwf	101,c	;volatile
  2058                           
  2059                           ;mcc_generated_files/adcc.c: 95:     ADREF = 0x00;
  2060  001D08  0E00               	movlw	0
  2061  001D0A  6F58               	movwf	88,b	;volatile
  2062                           
  2063                           ;mcc_generated_files/adcc.c: 97:     ADACT = 0x00;
  2064  001D0C  0E00               	movlw	0
  2065  001D0E  6F56               	movwf	86,b	;volatile
  2066                           
  2067                           ;mcc_generated_files/adcc.c: 99:     ADCLK = 0x07;
  2068  001D10  0E07               	movlw	7
  2069  001D12  6F57               	movwf	87,b	;volatile
  2070                           
  2071                           ;mcc_generated_files/adcc.c: 101:     ADCON0 = 0xC4;
  2072  001D14  0EC4               	movlw	196
  2073  001D16  6E60               	movwf	96,c	;volatile
  2074                           
  2075                           ;mcc_generated_files/adcc.c: 103:     ADACQ = 0x00;
  2076  001D18  0E00               	movlw	0
  2077  001D1A  6F5C               	movwf	92,b	;volatile
  2078  001D1C                     
  2079                           ; BSR set to: 15
  2080                           ;mcc_generated_files/adcc.c: 106:     PIR1bits.ADIF = 0;
  2081  001D1C  010E               	movlb	14	; () banked
  2082  001D1E  91CB               	bcf	203,0,b	;volatile
  2083  001D20                     
  2084                           ; BSR set to: 14
  2085                           ;mcc_generated_files/adcc.c: 108:     PIE1bits.ADIE = 1;
  2086  001D20  81C3               	bsf	195,0,b	;volatile
  2087  001D22                     
  2088                           ; BSR set to: 14
  2089                           ;mcc_generated_files/adcc.c: 110:     ADCC_SetADIInterruptHandler(ADCC_DefaultInterruptH
      +                          andler);
  2090  001D22  0EE2               	movlw	low _ADCC_DefaultInterruptHandler
  2091  001D24  6E03               	movwf	ADCC_SetADIInterruptHandler@InterruptHandler^0,c
  2092  001D26  0E1E               	movlw	high _ADCC_DefaultInterruptHandler
  2093  001D28  6E04               	movwf	(ADCC_SetADIInterruptHandler@InterruptHandler+1)^0,c
  2094  001D2A  0E00               	movlw	low (_ADCC_DefaultInterruptHandler shr (0+16))
  2095  001D2C  6E05               	movwf	(ADCC_SetADIInterruptHandler@InterruptHandler+2)^0,c
  2096  001D2E  EC5E  F00F         	call	_ADCC_SetADIInterruptHandler	;wreg free
  2097  001D32  0012               	return		;funcret
  2098  001D34                     __end_of_ADCC_Initialize:
  2099                           	callstack 0
  2100                           
  2101 ;; *************** function _ADCC_SetADIInterruptHandler *****************
  2102 ;; Defined at:
  2103 ;;		line 307 in file "mcc_generated_files/adcc.c"
  2104 ;; Parameters:    Size  Location     Type
  2105 ;;  InterruptHan    3    2[COMRAM] PTR FTN()void 
  2106 ;;		 -> ADCC_DefaultInterruptHandler(1), 
  2107 ;; Auto vars:     Size  Location     Type
  2108 ;;		None
  2109 ;; Return value:  Size  Location     Type
  2110 ;;                  1    wreg      void 
  2111 ;; Registers used:
  2112 ;;		wreg, status,2, status,0
  2113 ;; Tracked objects:
  2114 ;;		On entry : 0/0
  2115 ;;		On exit  : 0/0
  2116 ;;		Unchanged: 0/0
  2117 ;; Data sizes:     COMRAM   BANK0   BANK1   BANK2   BANK3   BANK4   BANK5   BANK6   BANK7   BANK8   BANK9  BANK10  BANK1
      +1  BANK12  BANK13  BANK14
  2118 ;;      Params:         3       0       0       0       0       0       0       0       0       0       0       0       
      +0       0       0       0
  2119 ;;      Locals:         0       0       0       0       0       0       0       0       0       0       0       0       
      +0       0       0       0
  2120 ;;      Temps:          0       0       0       0       0       0       0       0       0       0       0       0       
      +0       0       0       0
  2121 ;;      Totals:         3       0       0       0       0       0       0       0       0       0       0       0       
      +0       0       0       0
  2122 ;;Total ram usage:        3 bytes
  2123 ;; Hardware stack levels used: 1
  2124 ;; Hardware stack levels required when called: 3
  2125 ;; This function calls:
  2126 ;;		Nothing
  2127 ;; This function is called by:
  2128 ;;		_ADCC_Initialize
  2129 ;; This function uses a non-reentrant model
  2130 ;;
  2131                           
  2132                           	psect	text9
  2133  001EBC                     __ptext9:
  2134                           	callstack 0
  2135  001EBC                     _ADCC_SetADIInterruptHandler:
  2136                           	callstack 25
  2137  001EBC                     
  2138                           ;mcc_generated_files/adcc.c: 308:     ADCC_ADI_InterruptHandler = InterruptHandler;
  2139  001EBC  C003  F04E         	movff	ADCC_SetADIInterruptHandler@InterruptHandler,_ADCC_ADI_InterruptHandler
  2140  001EC0  C004  F04F         	movff	ADCC_SetADIInterruptHandler@InterruptHandler+1,_ADCC_ADI_InterruptHandler+1
  2141  001EC4  C005  F050         	movff	ADCC_SetADIInterruptHandler@InterruptHandler+2,_ADCC_ADI_InterruptHandler+2
  2142  001EC8  0012               	return		;funcret
  2143  001ECA                     __end_of_ADCC_SetADIInterruptHandler:
  2144                           	callstack 0
  2145                           
  2146 ;; *************** function _SPIConvertData *****************
  2147 ;; Defined at:
  2148 ;;		line 181 in file "main.c"
  2149 ;; Parameters:    Size  Location     Type
  2150 ;;  Data            2    2[COMRAM] unsigned short 
  2151 ;; Auto vars:     Size  Location     Type
  2152 ;;  DigiPacket      2    6[COMRAM] unsigned short 
  2153 ;; Return value:  Size  Location     Type
  2154 ;;                  2    2[COMRAM] unsigned short 
  2155 ;; Registers used:
  2156 ;;		wreg, status,2, status,0
  2157 ;; Tracked objects:
  2158 ;;		On entry : 0/0
  2159 ;;		On exit  : 0/0
  2160 ;;		Unchanged: 0/0
  2161 ;; Data sizes:     COMRAM   BANK0   BANK1   BANK2   BANK3   BANK4   BANK5   BANK6   BANK7   BANK8   BANK9  BANK10  BANK1
      +1  BANK12  BANK13  BANK14
  2162 ;;      Params:         2       0       0       0       0       0       0       0       0       0       0       0       
      +0       0       0       0
  2163 ;;      Locals:         2       0       0       0       0       0       0       0       0       0       0       0       
      +0       0       0       0
  2164 ;;      Temps:          2       0       0       0       0       0       0       0       0       0       0       0       
      +0       0       0       0
  2165 ;;      Totals:         6       0       0       0       0       0       0       0       0       0       0       0       
      +0       0       0       0
  2166 ;;Total ram usage:        6 bytes
  2167 ;; Hardware stack levels used: 1
  2168 ;; Hardware stack levels required when called: 3
  2169 ;; This function calls:
  2170 ;;		Nothing
  2171 ;; This function is called by:
  2172 ;;		_main
  2173 ;; This function uses a non-reentrant model
  2174 ;;
  2175                           
  2176                           	psect	text10
  2177  001E0C                     __ptext10:
  2178                           	callstack 0
  2179  001E0C                     _SPIConvertData:
  2180                           	callstack 27
  2181  001E0C                     
  2182                           ;main.c: 183:     uint16_t DigiPacket = 0x9000 | (Data << 2);
  2183  001E0C  C003  F005         	movff	SPIConvertData@Data,??_SPIConvertData
  2184  001E10  C004  F006         	movff	SPIConvertData@Data+1,??_SPIConvertData+1
  2185  001E14  90D8               	bcf	status,0,c
  2186  001E16  3605               	rlcf	??_SPIConvertData^0,f,c
  2187  001E18  3606               	rlcf	(??_SPIConvertData+1)^0,f,c
  2188  001E1A  90D8               	bcf	status,0,c
  2189  001E1C  3605               	rlcf	??_SPIConvertData^0,f,c
  2190  001E1E  3606               	rlcf	(??_SPIConvertData+1)^0,f,c
  2191  001E20  0E00               	movlw	0
  2192  001E22  1005               	iorwf	??_SPIConvertData^0,w,c
  2193  001E24  6E07               	movwf	SPIConvertData@DigiPacket^0,c
  2194  001E26  0E90               	movlw	144
  2195  001E28  1006               	iorwf	(??_SPIConvertData+1)^0,w,c
  2196  001E2A  6E08               	movwf	(SPIConvertData@DigiPacket+1)^0,c
  2197  001E2C                     
  2198                           ;main.c: 184:     return DigiPacket;
  2199  001E2C  C007  F003         	movff	SPIConvertData@DigiPacket,?_SPIConvertData
  2200  001E30  C008  F004         	movff	SPIConvertData@DigiPacket+1,?_SPIConvertData+1
  2201  001E34  0012               	return		;funcret
  2202  001E36                     __end_of_SPIConvertData:
  2203                           	callstack 0
  2204                           
  2205 ;; *************** function _SPI1_WriteByte *****************
  2206 ;; Defined at:
  2207 ;;		line 136 in file "mcc_generated_files/spi1.c"
  2208 ;; Parameters:    Size  Location     Type
  2209 ;;  byte            1    wreg     unsigned char 
  2210 ;; Auto vars:     Size  Location     Type
  2211 ;;  byte            1    2[COMRAM] unsigned char 
  2212 ;; Return value:  Size  Location     Type
  2213 ;;                  1    wreg      void 
  2214 ;; Registers used:
  2215 ;;		wreg
  2216 ;; Tracked objects:
  2217 ;;		On entry : 0/0
  2218 ;;		On exit  : 0/0
  2219 ;;		Unchanged: 0/0
  2220 ;; Data sizes:     COMRAM   BANK0   BANK1   BANK2   BANK3   BANK4   BANK5   BANK6   BANK7   BANK8   BANK9  BANK10  BANK1
      +1  BANK12  BANK13  BANK14
  2221 ;;      Params:         0       0       0       0       0       0       0       0       0       0       0       0       
      +0       0       0       0
  2222 ;;      Locals:         1       0       0       0       0       0       0       0       0       0       0       0       
      +0       0       0       0
  2223 ;;      Temps:          0       0       0       0       0       0       0       0       0       0       0       0       
      +0       0       0       0
  2224 ;;      Totals:         1       0       0       0       0       0       0       0       0       0       0       0       
      +0       0       0       0
  2225 ;;Total ram usage:        1 bytes
  2226 ;; Hardware stack levels used: 1
  2227 ;; Hardware stack levels required when called: 3
  2228 ;; This function calls:
  2229 ;;		Nothing
  2230 ;; This function is called by:
  2231 ;;		_main
  2232 ;; This function uses a non-reentrant model
  2233 ;;
  2234                           
  2235                           	psect	text11
  2236  001ED6                     __ptext11:
  2237                           	callstack 0
  2238  001ED6                     _SPI1_WriteByte:
  2239                           	callstack 27
  2240                           
  2241                           ;incstack = 0
  2242                           ;SPI1_WriteByte@byte stored from wreg
  2243  001ED6  6E03               	movwf	SPI1_WriteByte@byte^0,c
  2244  001ED8                     
  2245                           ;mcc_generated_files/spi1.c: 136: void SPI1_WriteByte(uint8_t byte);mcc_generated_files/
      +                          spi1.c: 137: {;mcc_generated_files/spi1.c: 138:     SSP1BUF = byte;
  2246  001ED8  C003  FF92         	movff	SPI1_WriteByte@byte,3986	;volatile
  2247  001EDC  0012               	return		;funcret
  2248  001EDE                     __end_of_SPI1_WriteByte:
  2249                           	callstack 0
  2250                           
  2251 ;; *************** function _PeriodCalc *****************
  2252 ;; Defined at:
  2253 ;;		line 186 in file "main.c"
  2254 ;; Parameters:    Size  Location     Type
  2255 ;;  ADCVal          2   51[COMRAM] unsigned short 
  2256 ;; Auto vars:     Size  Location     Type
  2257 ;;  T               2   53[COMRAM] unsigned short 
  2258 ;; Return value:  Size  Location     Type
  2259 ;;                  2   51[COMRAM] unsigned short 
  2260 ;; Registers used:
  2261 ;;		wreg, status,2, status,0, prodl, prodh, cstack
  2262 ;; Tracked objects:
  2263 ;;		On entry : 0/0
  2264 ;;		On exit  : 0/0
  2265 ;;		Unchanged: 0/0
  2266 ;; Data sizes:     COMRAM   BANK0   BANK1   BANK2   BANK3   BANK4   BANK5   BANK6   BANK7   BANK8   BANK9  BANK10  BANK1
      +1  BANK12  BANK13  BANK14
  2267 ;;      Params:         2       0       0       0       0       0       0       0       0       0       0       0       
      +0       0       0       0
  2268 ;;      Locals:         2       0       0       0       0       0       0       0       0       0       0       0       
      +0       0       0       0
  2269 ;;      Temps:          0       0       0       0       0       0       0       0       0       0       0       0       
      +0       0       0       0
  2270 ;;      Totals:         4       0       0       0       0       0       0       0       0       0       0       0       
      +0       0       0       0
  2271 ;;Total ram usage:        4 bytes
  2272 ;; Hardware stack levels used: 1
  2273 ;; Hardware stack levels required when called: 4
  2274 ;; This function calls:
  2275 ;;		___flmul
  2276 ;;		___fltol
  2277 ;;		___xxtofl
  2278 ;; This function is called by:
  2279 ;;		_main
  2280 ;; This function uses a non-reentrant model
  2281 ;;
  2282                           
  2283                           	psect	text12
  2284  001D34                     __ptext12:
  2285                           	callstack 0
  2286  001D34                     _PeriodCalc:
  2287                           	callstack 26
  2288  001D34                     
  2289                           ;main.c: 188:     uint16_t T = 0.2*ADCVal;
  2290  001D34  0ECD               	movlw	205
  2291  001D36  6E15               	movwf	___flmul@a^0,c
  2292  001D38  0ECC               	movlw	204
  2293  001D3A  6E16               	movwf	(___flmul@a+1)^0,c
  2294  001D3C  0E4C               	movlw	76
  2295  001D3E  6E17               	movwf	(___flmul@a+2)^0,c
  2296  001D40  0E3E               	movlw	62
  2297  001D42  6E18               	movwf	(___flmul@a+3)^0,c
  2298  001D44  C034  F003         	movff	PeriodCalc@ADCVal,___xxtofl@val
  2299  001D48  C035  F004         	movff	PeriodCalc@ADCVal+1,___xxtofl@val+1
  2300  001D4C  6A05               	clrf	(___xxtofl@val+2)^0,c
  2301  001D4E  6A06               	clrf	(___xxtofl@val+3)^0,c
  2302  001D50  0E00               	movlw	0
  2303  001D52  ECE4  F00A         	call	___xxtofl
  2304  001D56  C003  F011         	movff	?___xxtofl,___flmul@b
  2305  001D5A  C004  F012         	movff	?___xxtofl+1,___flmul@b+1
  2306  001D5E  C005  F013         	movff	?___xxtofl+2,___flmul@b+2
  2307  001D62  C006  F014         	movff	?___xxtofl+3,___flmul@b+3
  2308  001D66  EC83  F007         	call	___flmul	;wreg free
  2309  001D6A  C011  F02A         	movff	?___flmul,___fltol@f1
  2310  001D6E  C012  F02B         	movff	?___flmul+1,___fltol@f1+1
  2311  001D72  C013  F02C         	movff	?___flmul+2,___fltol@f1+2
  2312  001D76  C014  F02D         	movff	?___flmul+3,___fltol@f1+3
  2313  001D7A  ECBE  F00B         	call	___fltol	;wreg free
  2314  001D7E  C02A  F036         	movff	?___fltol,PeriodCalc@T
  2315  001D82  C02B  F037         	movff	?___fltol+1,PeriodCalc@T+1
  2316  001D86                     
  2317                           ;main.c: 189:     return T;
  2318  001D86  C036  F034         	movff	PeriodCalc@T,?_PeriodCalc
  2319  001D8A  C037  F035         	movff	PeriodCalc@T+1,?_PeriodCalc+1
  2320  001D8E  0012               	return		;funcret
  2321  001D90                     __end_of_PeriodCalc:
  2322                           	callstack 0
  2323                           
  2324 ;; *************** function ___xxtofl *****************
  2325 ;; Defined at:
  2326 ;;		line 10 in file "D:\Program Files\Microchip\xc8\v2.35\pic\sources\c99\common\xxtofl.c"
  2327 ;; Parameters:    Size  Location     Type
  2328 ;;  sign            1    wreg     unsigned char 
  2329 ;;  val             4    2[COMRAM] long 
  2330 ;; Auto vars:     Size  Location     Type
  2331 ;;  sign            1   10[COMRAM] unsigned char 
  2332 ;;  arg             4   12[COMRAM] unsigned long 
  2333 ;;  exp             1   11[COMRAM] unsigned char 
  2334 ;; Return value:  Size  Location     Type
  2335 ;;                  4    2[COMRAM] unsigned char 
  2336 ;; Registers used:
  2337 ;;		wreg, status,2, status,0
  2338 ;; Tracked objects:
  2339 ;;		On entry : 0/0
  2340 ;;		On exit  : 0/0
  2341 ;;		Unchanged: 0/0
  2342 ;; Data sizes:     COMRAM   BANK0   BANK1   BANK2   BANK3   BANK4   BANK5   BANK6   BANK7   BANK8   BANK9  BANK10  BANK1
      +1  BANK12  BANK13  BANK14
  2343 ;;      Params:         4       0       0       0       0       0       0       0       0       0       0       0       
      +0       0       0       0
  2344 ;;      Locals:         6       0       0       0       0       0       0       0       0       0       0       0       
      +0       0       0       0
  2345 ;;      Temps:          4       0       0       0       0       0       0       0       0       0       0       0       
      +0       0       0       0
  2346 ;;      Totals:        14       0       0       0       0       0       0       0       0       0       0       0       
      +0       0       0       0
  2347 ;;Total ram usage:       14 bytes
  2348 ;; Hardware stack levels used: 1
  2349 ;; Hardware stack levels required when called: 3
  2350 ;; This function calls:
  2351 ;;		Nothing
  2352 ;; This function is called by:
  2353 ;;		_PeriodCalc
  2354 ;; This function uses a non-reentrant model
  2355 ;;
  2356                           
  2357                           	psect	text13
  2358  0015C8                     __ptext13:
  2359                           	callstack 0
  2360  0015C8                     ___xxtofl:
  2361                           	callstack 26
  2362                           
  2363                           ;incstack = 0
  2364                           ;___xxtofl@sign stored from wreg
  2365  0015C8  6E0B               	movwf	___xxtofl@sign^0,c
  2366  0015CA  500B               	movf	___xxtofl@sign^0,w,c
  2367  0015CC  B4D8               	btfsc	status,2,c
  2368  0015CE  EFEB  F00A         	goto	u901
  2369  0015D2  EFED  F00A         	goto	u900
  2370  0015D6                     u901:
  2371  0015D6  EF0F  F00B         	goto	l1131
  2372  0015DA                     u900:
  2373  0015DA  BE06               	btfsc	(___xxtofl@val+3)^0,7,c
  2374  0015DC  EFF4  F00A         	goto	u910
  2375  0015E0  EFF2  F00A         	goto	u911
  2376  0015E4                     u911:
  2377  0015E4  EF0F  F00B         	goto	l1131
  2378  0015E8                     u910:
  2379  0015E8  C003  F007         	movff	___xxtofl@val,??___xxtofl
  2380  0015EC  C004  F008         	movff	___xxtofl@val+1,??___xxtofl+1
  2381  0015F0  C005  F009         	movff	___xxtofl@val+2,??___xxtofl+2
  2382  0015F4  C006  F00A         	movff	___xxtofl@val+3,??___xxtofl+3
  2383  0015F8  1E07               	comf	??___xxtofl^0,f,c
  2384  0015FA  1E08               	comf	(??___xxtofl+1)^0,f,c
  2385  0015FC  1E09               	comf	(??___xxtofl+2)^0,f,c
  2386  0015FE  1E0A               	comf	(??___xxtofl+3)^0,f,c
  2387  001600  2A07               	incf	??___xxtofl^0,f,c
  2388  001602  0E00               	movlw	0
  2389  001604  2208               	addwfc	(??___xxtofl+1)^0,f,c
  2390  001606  2209               	addwfc	(??___xxtofl+2)^0,f,c
  2391  001608  220A               	addwfc	(??___xxtofl+3)^0,f,c
  2392  00160A  C007  F00D         	movff	??___xxtofl,___xxtofl@arg
  2393  00160E  C008  F00E         	movff	??___xxtofl+1,___xxtofl@arg+1
  2394  001612  C009  F00F         	movff	??___xxtofl+2,___xxtofl@arg+2
  2395  001616  C00A  F010         	movff	??___xxtofl+3,___xxtofl@arg+3
  2396  00161A  EF17  F00B         	goto	l1929
  2397  00161E                     l1131:
  2398  00161E  C003  F00D         	movff	___xxtofl@val,___xxtofl@arg
  2399  001622  C004  F00E         	movff	___xxtofl@val+1,___xxtofl@arg+1
  2400  001626  C005  F00F         	movff	___xxtofl@val+2,___xxtofl@arg+2
  2401  00162A  C006  F010         	movff	___xxtofl@val+3,___xxtofl@arg+3
  2402  00162E                     l1929:
  2403  00162E  5003               	movf	___xxtofl@val^0,w,c
  2404  001630  1004               	iorwf	(___xxtofl@val+1)^0,w,c
  2405  001632  1005               	iorwf	(___xxtofl@val+2)^0,w,c
  2406  001634  1006               	iorwf	(___xxtofl@val+3)^0,w,c
  2407  001636  A4D8               	btfss	status,2,c
  2408  001638  EF20  F00B         	goto	u921
  2409  00163C  EF22  F00B         	goto	u920
  2410  001640                     u921:
  2411  001640  EF2C  F00B         	goto	l1935
  2412  001644                     u920:
  2413  001644  0E00               	movlw	0
  2414  001646  6E03               	movwf	?___xxtofl^0,c
  2415  001648  0E00               	movlw	0
  2416  00164A  6E04               	movwf	(?___xxtofl+1)^0,c
  2417  00164C  0E00               	movlw	0
  2418  00164E  6E05               	movwf	(?___xxtofl+2)^0,c
  2419  001650  0E00               	movlw	0
  2420  001652  6E06               	movwf	(?___xxtofl+3)^0,c
  2421  001654  EFBD  F00B         	goto	l1134
  2422  001658                     l1935:
  2423  001658  0E96               	movlw	150
  2424  00165A  6E0C               	movwf	___xxtofl@exp^0,c
  2425  00165C  EF36  F00B         	goto	l1939
  2426  001660                     l1937:
  2427  001660  2A0C               	incf	___xxtofl@exp^0,f,c
  2428  001662  90D8               	bcf	status,0,c
  2429  001664  3210               	rrcf	(___xxtofl@arg+3)^0,f,c
  2430  001666  320F               	rrcf	(___xxtofl@arg+2)^0,f,c
  2431  001668  320E               	rrcf	(___xxtofl@arg+1)^0,f,c
  2432  00166A  320D               	rrcf	___xxtofl@arg^0,f,c
  2433  00166C                     l1939:
  2434  00166C  0E00               	movlw	0
  2435  00166E  140D               	andwf	___xxtofl@arg^0,w,c
  2436  001670  6E07               	movwf	??___xxtofl^0,c
  2437  001672  0E00               	movlw	0
  2438  001674  140E               	andwf	(___xxtofl@arg+1)^0,w,c
  2439  001676  6E08               	movwf	(??___xxtofl+1)^0,c
  2440  001678  0E00               	movlw	0
  2441  00167A  140F               	andwf	(___xxtofl@arg+2)^0,w,c
  2442  00167C  6E09               	movwf	(??___xxtofl+2)^0,c
  2443  00167E  0EFE               	movlw	254
  2444  001680  1410               	andwf	(___xxtofl@arg+3)^0,w,c
  2445  001682  6E0A               	movwf	(??___xxtofl+3)^0,c
  2446  001684  5007               	movf	??___xxtofl^0,w,c
  2447  001686  1008               	iorwf	(??___xxtofl+1)^0,w,c
  2448  001688  1009               	iorwf	(??___xxtofl+2)^0,w,c
  2449  00168A  100A               	iorwf	(??___xxtofl+3)^0,w,c
  2450  00168C  A4D8               	btfss	status,2,c
  2451  00168E  EF4B  F00B         	goto	u931
  2452  001692  EF4D  F00B         	goto	u930
  2453  001696                     u931:
  2454  001696  EF30  F00B         	goto	l1937
  2455  00169A                     u930:
  2456  00169A  EF5B  F00B         	goto	l1138
  2457  00169E                     l1941:
  2458  00169E  2A0C               	incf	___xxtofl@exp^0,f,c
  2459  0016A0  0E01               	movlw	1
  2460  0016A2  260D               	addwf	___xxtofl@arg^0,f,c
  2461  0016A4  0E00               	movlw	0
  2462  0016A6  220E               	addwfc	(___xxtofl@arg+1)^0,f,c
  2463  0016A8  220F               	addwfc	(___xxtofl@arg+2)^0,f,c
  2464  0016AA  2210               	addwfc	(___xxtofl@arg+3)^0,f,c
  2465  0016AC  90D8               	bcf	status,0,c
  2466  0016AE  3210               	rrcf	(___xxtofl@arg+3)^0,f,c
  2467  0016B0  320F               	rrcf	(___xxtofl@arg+2)^0,f,c
  2468  0016B2  320E               	rrcf	(___xxtofl@arg+1)^0,f,c
  2469  0016B4  320D               	rrcf	___xxtofl@arg^0,f,c
  2470  0016B6                     l1138:
  2471  0016B6  0E00               	movlw	0
  2472  0016B8  140D               	andwf	___xxtofl@arg^0,w,c
  2473  0016BA  6E07               	movwf	??___xxtofl^0,c
  2474  0016BC  0E00               	movlw	0
  2475  0016BE  140E               	andwf	(___xxtofl@arg+1)^0,w,c
  2476  0016C0  6E08               	movwf	(??___xxtofl+1)^0,c
  2477  0016C2  0E00               	movlw	0
  2478  0016C4  140F               	andwf	(___xxtofl@arg+2)^0,w,c
  2479  0016C6  6E09               	movwf	(??___xxtofl+2)^0,c
  2480  0016C8  0EFF               	movlw	255
  2481  0016CA  1410               	andwf	(___xxtofl@arg+3)^0,w,c
  2482  0016CC  6E0A               	movwf	(??___xxtofl+3)^0,c
  2483  0016CE  5007               	movf	??___xxtofl^0,w,c
  2484  0016D0  1008               	iorwf	(??___xxtofl+1)^0,w,c
  2485  0016D2  1009               	iorwf	(??___xxtofl+2)^0,w,c
  2486  0016D4  100A               	iorwf	(??___xxtofl+3)^0,w,c
  2487  0016D6  A4D8               	btfss	status,2,c
  2488  0016D8  EF70  F00B         	goto	u941
  2489  0016DC  EF72  F00B         	goto	u940
  2490  0016E0                     u941:
  2491  0016E0  EF4F  F00B         	goto	l1941
  2492  0016E4                     u940:
  2493  0016E4  EF7A  F00B         	goto	l1949
  2494  0016E8                     l1947:
  2495  0016E8  060C               	decf	___xxtofl@exp^0,f,c
  2496  0016EA  90D8               	bcf	status,0,c
  2497  0016EC  360D               	rlcf	___xxtofl@arg^0,f,c
  2498  0016EE  360E               	rlcf	(___xxtofl@arg+1)^0,f,c
  2499  0016F0  360F               	rlcf	(___xxtofl@arg+2)^0,f,c
  2500  0016F2  3610               	rlcf	(___xxtofl@arg+3)^0,f,c
  2501  0016F4                     l1949:
  2502  0016F4  BE0F               	btfsc	(___xxtofl@arg+2)^0,7,c
  2503  0016F6  EF7F  F00B         	goto	u951
  2504  0016FA  EF81  F00B         	goto	u950
  2505  0016FE                     u951:
  2506  0016FE  EF89  F00B         	goto	l1145
  2507  001702                     u950:
  2508  001702  0E02               	movlw	2
  2509  001704  600C               	cpfslt	___xxtofl@exp^0,c
  2510  001706  EF87  F00B         	goto	u961
  2511  00170A  EF89  F00B         	goto	u960
  2512  00170E                     u961:
  2513  00170E  EF74  F00B         	goto	l1947
  2514  001712                     u960:
  2515  001712                     l1145:
  2516  001712  B00C               	btfsc	___xxtofl@exp^0,0,c
  2517  001714  EF8E  F00B         	goto	u971
  2518  001718  EF90  F00B         	goto	u970
  2519  00171C                     u971:
  2520  00171C  EF91  F00B         	goto	l1955
  2521  001720                     u970:
  2522  001720  9E0F               	bcf	(___xxtofl@arg+2)^0,7,c
  2523  001722                     l1955:
  2524  001722  90D8               	bcf	status,0,c
  2525  001724  320C               	rrcf	___xxtofl@exp^0,f,c
  2526  001726  C00C  F007         	movff	___xxtofl@exp,??___xxtofl
  2527  00172A  6A08               	clrf	(??___xxtofl+1)^0,c
  2528  00172C  6A09               	clrf	(??___xxtofl+2)^0,c
  2529  00172E  6A0A               	clrf	(??___xxtofl+3)^0,c
  2530  001730  C007  F00A         	movff	??___xxtofl,??___xxtofl+3
  2531  001734  6A09               	clrf	(??___xxtofl+2)^0,c
  2532  001736  6A08               	clrf	(??___xxtofl+1)^0,c
  2533  001738  6A07               	clrf	??___xxtofl^0,c
  2534  00173A  5007               	movf	??___xxtofl^0,w,c
  2535  00173C  120D               	iorwf	___xxtofl@arg^0,f,c
  2536  00173E  5008               	movf	(??___xxtofl+1)^0,w,c
  2537  001740  120E               	iorwf	(___xxtofl@arg+1)^0,f,c
  2538  001742  5009               	movf	(??___xxtofl+2)^0,w,c
  2539  001744  120F               	iorwf	(___xxtofl@arg+2)^0,f,c
  2540  001746  500A               	movf	(??___xxtofl+3)^0,w,c
  2541  001748  1210               	iorwf	(___xxtofl@arg+3)^0,f,c
  2542  00174A  500B               	movf	___xxtofl@sign^0,w,c
  2543  00174C  B4D8               	btfsc	status,2,c
  2544  00174E  EFAB  F00B         	goto	u981
  2545  001752  EFAD  F00B         	goto	u980
  2546  001756                     u981:
  2547  001756  EFB5  F00B         	goto	l1965
  2548  00175A                     u980:
  2549  00175A  BE06               	btfsc	(___xxtofl@val+3)^0,7,c
  2550  00175C  EFB4  F00B         	goto	u990
  2551  001760  EFB2  F00B         	goto	u991
  2552  001764                     u991:
  2553  001764  EFB5  F00B         	goto	l1965
  2554  001768                     u990:
  2555  001768  8E10               	bsf	(___xxtofl@arg+3)^0,7,c
  2556  00176A                     l1965:
  2557  00176A  C00D  F003         	movff	___xxtofl@arg,?___xxtofl
  2558  00176E  C00E  F004         	movff	___xxtofl@arg+1,?___xxtofl+1
  2559  001772  C00F  F005         	movff	___xxtofl@arg+2,?___xxtofl+2
  2560  001776  C010  F006         	movff	___xxtofl@arg+3,?___xxtofl+3
  2561  00177A                     l1134:
  2562  00177A  0012               	return		;funcret
  2563  00177C                     __end_of___xxtofl:
  2564                           	callstack 0
  2565                           
  2566 ;; *************** function ___fltol *****************
  2567 ;; Defined at:
  2568 ;;		line 43 in file "D:\Program Files\Microchip\xc8\v2.35\pic\sources\c99\common\fltol.c"
  2569 ;; Parameters:    Size  Location     Type
  2570 ;;  f1              4   41[COMRAM] unsigned char 
  2571 ;; Auto vars:     Size  Location     Type
  2572 ;;  exp1            1   50[COMRAM] unsigned char 
  2573 ;;  sign1           1   49[COMRAM] unsigned char 
  2574 ;; Return value:  Size  Location     Type
  2575 ;;                  4   41[COMRAM] long 
  2576 ;; Registers used:
  2577 ;;		wreg, status,2, status,0
  2578 ;; Tracked objects:
  2579 ;;		On entry : 0/0
  2580 ;;		On exit  : 0/0
  2581 ;;		Unchanged: 0/0
  2582 ;; Data sizes:     COMRAM   BANK0   BANK1   BANK2   BANK3   BANK4   BANK5   BANK6   BANK7   BANK8   BANK9  BANK10  BANK1
      +1  BANK12  BANK13  BANK14
  2583 ;;      Params:         4       0       0       0       0       0       0       0       0       0       0       0       
      +0       0       0       0
  2584 ;;      Locals:         2       0       0       0       0       0       0       0       0       0       0       0       
      +0       0       0       0
  2585 ;;      Temps:          4       0       0       0       0       0       0       0       0       0       0       0       
      +0       0       0       0
  2586 ;;      Totals:        10       0       0       0       0       0       0       0       0       0       0       0       
      +0       0       0       0
  2587 ;;Total ram usage:       10 bytes
  2588 ;; Hardware stack levels used: 1
  2589 ;; Hardware stack levels required when called: 3
  2590 ;; This function calls:
  2591 ;;		Nothing
  2592 ;; This function is called by:
  2593 ;;		_PeriodCalc
  2594 ;; This function uses a non-reentrant model
  2595 ;;
  2596                           
  2597                           	psect	text14
  2598  00177C                     __ptext14:
  2599                           	callstack 0
  2600  00177C                     ___fltol:
  2601                           	callstack 26
  2602  00177C  342C               	rlcf	(___fltol@f1+2)^0,w,c
  2603  00177E  342D               	rlcf	(___fltol@f1+3)^0,w,c
  2604  001780  6E33               	movwf	___fltol@exp1^0,c
  2605  001782  5033               	movf	___fltol@exp1^0,w,c
  2606  001784  A4D8               	btfss	status,2,c
  2607  001786  EFC7  F00B         	goto	u831
  2608  00178A  EFC9  F00B         	goto	u830
  2609  00178E                     u831:
  2610  00178E  EFD3  F00B         	goto	l1885
  2611  001792                     u830:
  2612  001792                     l1881:
  2613  001792  0E00               	movlw	0
  2614  001794  6E2A               	movwf	?___fltol^0,c
  2615  001796  0E00               	movlw	0
  2616  001798  6E2B               	movwf	(?___fltol+1)^0,c
  2617  00179A  0E00               	movlw	0
  2618  00179C  6E2C               	movwf	(?___fltol+2)^0,c
  2619  00179E  0E00               	movlw	0
  2620  0017A0  6E2D               	movwf	(?___fltol+3)^0,c
  2621  0017A2  EF40  F00C         	goto	l773
  2622  0017A6                     l1885:
  2623  0017A6  C02A  F02E         	movff	___fltol@f1,??___fltol
  2624  0017AA  C02B  F02F         	movff	___fltol@f1+1,??___fltol+1
  2625  0017AE  C02C  F030         	movff	___fltol@f1+2,??___fltol+2
  2626  0017B2  C02D  F031         	movff	___fltol@f1+3,??___fltol+3
  2627  0017B6  0E20               	movlw	32
  2628  0017B8  EFE3  F00B         	goto	u840
  2629  0017BC                     u845:
  2630  0017BC  90D8               	bcf	status,0,c
  2631  0017BE  3231               	rrcf	(??___fltol+3)^0,f,c
  2632  0017C0  3230               	rrcf	(??___fltol+2)^0,f,c
  2633  0017C2  322F               	rrcf	(??___fltol+1)^0,f,c
  2634  0017C4  322E               	rrcf	??___fltol^0,f,c
  2635  0017C6                     u840:
  2636  0017C6  2EE8               	decfsz	wreg,f,c
  2637  0017C8  EFDE  F00B         	goto	u845
  2638  0017CC  502E               	movf	??___fltol^0,w,c
  2639  0017CE  6E32               	movwf	___fltol@sign1^0,c
  2640  0017D0  8E2C               	bsf	(___fltol@f1+2)^0,7,c
  2641  0017D2  0EFF               	movlw	255
  2642  0017D4  162A               	andwf	___fltol@f1^0,f,c
  2643  0017D6  0EFF               	movlw	255
  2644  0017D8  162B               	andwf	(___fltol@f1+1)^0,f,c
  2645  0017DA  0EFF               	movlw	255
  2646  0017DC  162C               	andwf	(___fltol@f1+2)^0,f,c
  2647  0017DE  0E00               	movlw	0
  2648  0017E0  162D               	andwf	(___fltol@f1+3)^0,f,c
  2649  0017E2  0E96               	movlw	150
  2650  0017E4  5E33               	subwf	___fltol@exp1^0,f,c
  2651  0017E6  BE33               	btfsc	___fltol@exp1^0,7,c
  2652  0017E8  EFFA  F00B         	goto	u850
  2653  0017EC  EFF8  F00B         	goto	u851
  2654  0017F0                     u851:
  2655  0017F0  EF10  F00C         	goto	l1905
  2656  0017F4                     u850:
  2657  0017F4  5033               	movf	___fltol@exp1^0,w,c
  2658  0017F6  0A80               	xorlw	128
  2659  0017F8  0F97               	addlw	151
  2660  0017FA  B0D8               	btfsc	status,0,c
  2661  0017FC  EF02  F00C         	goto	u861
  2662  001800  EF04  F00C         	goto	u860
  2663  001804                     u861:
  2664  001804  EF06  F00C         	goto	l1901
  2665  001808                     u860:
  2666  001808  EFC9  F00B         	goto	l1881
  2667  00180C                     l1901:
  2668  00180C  90D8               	bcf	status,0,c
  2669  00180E  322D               	rrcf	(___fltol@f1+3)^0,f,c
  2670  001810  322C               	rrcf	(___fltol@f1+2)^0,f,c
  2671  001812  322B               	rrcf	(___fltol@f1+1)^0,f,c
  2672  001814  322A               	rrcf	___fltol@f1^0,f,c
  2673  001816  3E33               	incfsz	___fltol@exp1^0,f,c
  2674  001818  EF06  F00C         	goto	l1901
  2675  00181C  EF28  F00C         	goto	l1915
  2676  001820                     l1905:
  2677  001820  0E1F               	movlw	31
  2678  001822  6433               	cpfsgt	___fltol@exp1^0,c
  2679  001824  EF16  F00C         	goto	u871
  2680  001828  EF18  F00C         	goto	u870
  2681  00182C                     u871:
  2682  00182C  EF20  F00C         	goto	l1913
  2683  001830                     u870:
  2684  001830  EFC9  F00B         	goto	l1881
  2685  001834                     l1911:
  2686  001834  90D8               	bcf	status,0,c
  2687  001836  362A               	rlcf	___fltol@f1^0,f,c
  2688  001838  362B               	rlcf	(___fltol@f1+1)^0,f,c
  2689  00183A  362C               	rlcf	(___fltol@f1+2)^0,f,c
  2690  00183C  362D               	rlcf	(___fltol@f1+3)^0,f,c
  2691  00183E  0633               	decf	___fltol@exp1^0,f,c
  2692  001840                     l1913:
  2693  001840  5033               	movf	___fltol@exp1^0,w,c
  2694  001842  A4D8               	btfss	status,2,c
  2695  001844  EF26  F00C         	goto	u881
  2696  001848  EF28  F00C         	goto	u880
  2697  00184C                     u881:
  2698  00184C  EF1A  F00C         	goto	l1911
  2699  001850                     u880:
  2700  001850                     l1915:
  2701  001850  5032               	movf	___fltol@sign1^0,w,c
  2702  001852  B4D8               	btfsc	status,2,c
  2703  001854  EF2E  F00C         	goto	u891
  2704  001858  EF30  F00C         	goto	u890
  2705  00185C                     u891:
  2706  00185C  EF38  F00C         	goto	l1919
  2707  001860                     u890:
  2708  001860  1E2D               	comf	(___fltol@f1+3)^0,f,c
  2709  001862  1E2C               	comf	(___fltol@f1+2)^0,f,c
  2710  001864  1E2B               	comf	(___fltol@f1+1)^0,f,c
  2711  001866  6C2A               	negf	___fltol@f1^0,c
  2712  001868  0E00               	movlw	0
  2713  00186A  222B               	addwfc	(___fltol@f1+1)^0,f,c
  2714  00186C  222C               	addwfc	(___fltol@f1+2)^0,f,c
  2715  00186E  222D               	addwfc	(___fltol@f1+3)^0,f,c
  2716  001870                     l1919:
  2717  001870  C02A  F02A         	movff	___fltol@f1,?___fltol
  2718  001874  C02B  F02B         	movff	___fltol@f1+1,?___fltol+1
  2719  001878  C02C  F02C         	movff	___fltol@f1+2,?___fltol+2
  2720  00187C  C02D  F02D         	movff	___fltol@f1+3,?___fltol+3
  2721  001880                     l773:
  2722  001880  0012               	return		;funcret
  2723  001882                     __end_of___fltol:
  2724                           	callstack 0
  2725                           
  2726 ;; *************** function ___flmul *****************
  2727 ;; Defined at:
  2728 ;;		line 8 in file "D:\Program Files\Microchip\xc8\v2.35\pic\sources\c99\common\sprcmul.c"
  2729 ;; Parameters:    Size  Location     Type
  2730 ;;  b               4   16[COMRAM] long 
  2731 ;;  a               4   20[COMRAM] long 
  2732 ;; Auto vars:     Size  Location     Type
  2733 ;;  prod            4   35[COMRAM] struct .
  2734 ;;  grs             4   29[COMRAM] unsigned long 
  2735 ;;  temp            2   39[COMRAM] struct .
  2736 ;;  bexp            1   34[COMRAM] unsigned char 
  2737 ;;  aexp            1   33[COMRAM] unsigned char 
  2738 ;;  sign            1   28[COMRAM] unsigned char 
  2739 ;; Return value:  Size  Location     Type
  2740 ;;                  4   16[COMRAM] unsigned char 
  2741 ;; Registers used:
  2742 ;;		wreg, status,2, status,0, prodl, prodh
  2743 ;; Tracked objects:
  2744 ;;		On entry : 0/0
  2745 ;;		On exit  : 0/0
  2746 ;;		Unchanged: 0/0
  2747 ;; Data sizes:     COMRAM   BANK0   BANK1   BANK2   BANK3   BANK4   BANK5   BANK6   BANK7   BANK8   BANK9  BANK10  BANK1
      +1  BANK12  BANK13  BANK14
  2748 ;;      Params:         8       0       0       0       0       0       0       0       0       0       0       0       
      +0       0       0       0
  2749 ;;      Locals:        13       0       0       0       0       0       0       0       0       0       0       0       
      +0       0       0       0
  2750 ;;      Temps:          4       0       0       0       0       0       0       0       0       0       0       0       
      +0       0       0       0
  2751 ;;      Totals:        25       0       0       0       0       0       0       0       0       0       0       0       
      +0       0       0       0
  2752 ;;Total ram usage:       25 bytes
  2753 ;; Hardware stack levels used: 1
  2754 ;; Hardware stack levels required when called: 3
  2755 ;; This function calls:
  2756 ;;		Nothing
  2757 ;; This function is called by:
  2758 ;;		_PeriodCalc
  2759 ;; This function uses a non-reentrant model
  2760 ;;
  2761                           
  2762                           	psect	text15
  2763  000F06                     __ptext15:
  2764                           	callstack 0
  2765  000F06                     ___flmul:
  2766                           	callstack 26
  2767  000F06  5014               	movf	(___flmul@b+3)^0,w,c
  2768  000F08  0B80               	andlw	128
  2769  000F0A  6E1D               	movwf	___flmul@sign^0,c
  2770  000F0C  5014               	movf	(___flmul@b+3)^0,w,c
  2771  000F0E  2414               	addwf	(___flmul@b+3)^0,w,c
  2772  000F10  6E23               	movwf	___flmul@bexp^0,c
  2773  000F12  AE13               	btfss	(___flmul@b+2)^0,7,c
  2774  000F14  EF8E  F007         	goto	u641
  2775  000F18  EF90  F007         	goto	u640
  2776  000F1C                     u641:
  2777  000F1C  EF91  F007         	goto	l1755
  2778  000F20                     u640:
  2779  000F20  8023               	bsf	___flmul@bexp^0,0,c
  2780  000F22                     l1755:
  2781  000F22  5023               	movf	___flmul@bexp^0,w,c
  2782  000F24  B4D8               	btfsc	status,2,c
  2783  000F26  EF97  F007         	goto	u651
  2784  000F2A  EF99  F007         	goto	u650
  2785  000F2E                     u651:
  2786  000F2E  EFAC  F007         	goto	l1763
  2787  000F32                     u650:
  2788  000F32  2823               	incf	___flmul@bexp^0,w,c
  2789  000F34  A4D8               	btfss	status,2,c
  2790  000F36  EF9F  F007         	goto	u661
  2791  000F3A  EFA1  F007         	goto	u660
  2792  000F3E                     u661:
  2793  000F3E  EFA9  F007         	goto	l1761
  2794  000F42                     u660:
  2795  000F42  0E00               	movlw	0
  2796  000F44  6E11               	movwf	___flmul@b^0,c
  2797  000F46  0E00               	movlw	0
  2798  000F48  6E12               	movwf	(___flmul@b+1)^0,c
  2799  000F4A  0E00               	movlw	0
  2800  000F4C  6E13               	movwf	(___flmul@b+2)^0,c
  2801  000F4E  0E00               	movlw	0
  2802  000F50  6E14               	movwf	(___flmul@b+3)^0,c
  2803  000F52                     l1761:
  2804  000F52  8E13               	bsf	(___flmul@b+2)^0,7,c
  2805  000F54  EFB4  F007         	goto	l1765
  2806  000F58                     l1763:
  2807  000F58  0E00               	movlw	0
  2808  000F5A  6E11               	movwf	___flmul@b^0,c
  2809  000F5C  0E00               	movlw	0
  2810  000F5E  6E12               	movwf	(___flmul@b+1)^0,c
  2811  000F60  0E00               	movlw	0
  2812  000F62  6E13               	movwf	(___flmul@b+2)^0,c
  2813  000F64  0E00               	movlw	0
  2814  000F66  6E14               	movwf	(___flmul@b+3)^0,c
  2815  000F68                     l1765:
  2816  000F68  5018               	movf	(___flmul@a+3)^0,w,c
  2817  000F6A  0B80               	andlw	128
  2818  000F6C  1A1D               	xorwf	___flmul@sign^0,f,c
  2819  000F6E  5018               	movf	(___flmul@a+3)^0,w,c
  2820  000F70  2418               	addwf	(___flmul@a+3)^0,w,c
  2821  000F72  6E22               	movwf	___flmul@aexp^0,c
  2822  000F74  AE17               	btfss	(___flmul@a+2)^0,7,c
  2823  000F76  EFBF  F007         	goto	u671
  2824  000F7A  EFC1  F007         	goto	u670
  2825  000F7E                     u671:
  2826  000F7E  EFC2  F007         	goto	l1773
  2827  000F82                     u670:
  2828  000F82  8022               	bsf	___flmul@aexp^0,0,c
  2829  000F84                     l1773:
  2830  000F84  5022               	movf	___flmul@aexp^0,w,c
  2831  000F86  B4D8               	btfsc	status,2,c
  2832  000F88  EFC8  F007         	goto	u681
  2833  000F8C  EFCA  F007         	goto	u680
  2834  000F90                     u681:
  2835  000F90  EFDD  F007         	goto	l1781
  2836  000F94                     u680:
  2837  000F94  2822               	incf	___flmul@aexp^0,w,c
  2838  000F96  A4D8               	btfss	status,2,c
  2839  000F98  EFD0  F007         	goto	u691
  2840  000F9C  EFD2  F007         	goto	u690
  2841  000FA0                     u691:
  2842  000FA0  EFDA  F007         	goto	l1779
  2843  000FA4                     u690:
  2844  000FA4  0E00               	movlw	0
  2845  000FA6  6E15               	movwf	___flmul@a^0,c
  2846  000FA8  0E00               	movlw	0
  2847  000FAA  6E16               	movwf	(___flmul@a+1)^0,c
  2848  000FAC  0E00               	movlw	0
  2849  000FAE  6E17               	movwf	(___flmul@a+2)^0,c
  2850  000FB0  0E00               	movlw	0
  2851  000FB2  6E18               	movwf	(___flmul@a+3)^0,c
  2852  000FB4                     l1779:
  2853  000FB4  8E17               	bsf	(___flmul@a+2)^0,7,c
  2854  000FB6  EFE5  F007         	goto	l1090
  2855  000FBA                     l1781:
  2856  000FBA  0E00               	movlw	0
  2857  000FBC  6E15               	movwf	___flmul@a^0,c
  2858  000FBE  0E00               	movlw	0
  2859  000FC0  6E16               	movwf	(___flmul@a+1)^0,c
  2860  000FC2  0E00               	movlw	0
  2861  000FC4  6E17               	movwf	(___flmul@a+2)^0,c
  2862  000FC6  0E00               	movlw	0
  2863  000FC8  6E18               	movwf	(___flmul@a+3)^0,c
  2864  000FCA                     l1090:
  2865  000FCA  5022               	movf	___flmul@aexp^0,w,c
  2866  000FCC  B4D8               	btfsc	status,2,c
  2867  000FCE  EFEB  F007         	goto	u701
  2868  000FD2  EFED  F007         	goto	u700
  2869  000FD6                     u701:
  2870  000FD6  EFF5  F007         	goto	l1785
  2871  000FDA                     u700:
  2872  000FDA  5023               	movf	___flmul@bexp^0,w,c
  2873  000FDC  A4D8               	btfss	status,2,c
  2874  000FDE  EFF3  F007         	goto	u711
  2875  000FE2  EFF5  F007         	goto	u710
  2876  000FE6                     u711:
  2877  000FE6  EFFF  F007         	goto	l1789
  2878  000FEA                     u710:
  2879  000FEA                     l1785:
  2880  000FEA  0E00               	movlw	0
  2881  000FEC  6E11               	movwf	?___flmul^0,c
  2882  000FEE  0E00               	movlw	0
  2883  000FF0  6E12               	movwf	(?___flmul+1)^0,c
  2884  000FF2  0E00               	movlw	0
  2885  000FF4  6E13               	movwf	(?___flmul+2)^0,c
  2886  000FF6  0E00               	movlw	0
  2887  000FF8  6E14               	movwf	(?___flmul+3)^0,c
  2888  000FFA  EF97  F009         	goto	l1094
  2889  000FFE                     l1789:
  2890  000FFE  5017               	movf	(___flmul@a+2)^0,w,c
  2891  001000  0211               	mulwf	___flmul@b^0,c
  2892  001002  CFF3 F028          	movff	prodl,___flmul@temp
  2893  001006  CFF4 F029          	movff	prodh,___flmul@temp+1
  2894  00100A  5028               	movf	___flmul@temp^0,w,c
  2895  00100C  6E1E               	movwf	___flmul@grs^0,c
  2896  00100E  6A1F               	clrf	(___flmul@grs+1)^0,c
  2897  001010  6A20               	clrf	(___flmul@grs+2)^0,c
  2898  001012  6A21               	clrf	(___flmul@grs+3)^0,c
  2899  001014  5029               	movf	(___flmul@temp+1)^0,w,c
  2900  001016  6E24               	movwf	___flmul@prod^0,c
  2901  001018  6A25               	clrf	(___flmul@prod+1)^0,c
  2902  00101A  6A26               	clrf	(___flmul@prod+2)^0,c
  2903  00101C  6A27               	clrf	(___flmul@prod+3)^0,c
  2904  00101E  5016               	movf	(___flmul@a+1)^0,w,c
  2905  001020  0212               	mulwf	(___flmul@b+1)^0,c
  2906  001022  CFF3 F028          	movff	prodl,___flmul@temp
  2907  001026  CFF4 F029          	movff	prodh,___flmul@temp+1
  2908  00102A  5028               	movf	___flmul@temp^0,w,c
  2909  00102C  261E               	addwf	___flmul@grs^0,f,c
  2910  00102E  0E00               	movlw	0
  2911  001030  221F               	addwfc	(___flmul@grs+1)^0,f,c
  2912  001032  2220               	addwfc	(___flmul@grs+2)^0,f,c
  2913  001034  2221               	addwfc	(___flmul@grs+3)^0,f,c
  2914  001036  5029               	movf	(___flmul@temp+1)^0,w,c
  2915  001038  2624               	addwf	___flmul@prod^0,f,c
  2916  00103A  0E00               	movlw	0
  2917  00103C  2225               	addwfc	(___flmul@prod+1)^0,f,c
  2918  00103E  2226               	addwfc	(___flmul@prod+2)^0,f,c
  2919  001040  2227               	addwfc	(___flmul@prod+3)^0,f,c
  2920  001042  5015               	movf	___flmul@a^0,w,c
  2921  001044  0213               	mulwf	(___flmul@b+2)^0,c
  2922  001046  CFF3 F028          	movff	prodl,___flmul@temp
  2923  00104A  CFF4 F029          	movff	prodh,___flmul@temp+1
  2924  00104E  5028               	movf	___flmul@temp^0,w,c
  2925  001050  261E               	addwf	___flmul@grs^0,f,c
  2926  001052  0E00               	movlw	0
  2927  001054  221F               	addwfc	(___flmul@grs+1)^0,f,c
  2928  001056  2220               	addwfc	(___flmul@grs+2)^0,f,c
  2929  001058  2221               	addwfc	(___flmul@grs+3)^0,f,c
  2930  00105A  5029               	movf	(___flmul@temp+1)^0,w,c
  2931  00105C  2624               	addwf	___flmul@prod^0,f,c
  2932  00105E  0E00               	movlw	0
  2933  001060  2225               	addwfc	(___flmul@prod+1)^0,f,c
  2934  001062  2226               	addwfc	(___flmul@prod+2)^0,f,c
  2935  001064  2227               	addwfc	(___flmul@prod+3)^0,f,c
  2936  001066  C020  F021         	movff	___flmul@grs+2,___flmul@grs+3
  2937  00106A  C01F  F020         	movff	___flmul@grs+1,___flmul@grs+2
  2938  00106E  C01E  F01F         	movff	___flmul@grs,___flmul@grs+1
  2939  001072  6A1E               	clrf	___flmul@grs^0,c
  2940  001074  5015               	movf	___flmul@a^0,w,c
  2941  001076  0212               	mulwf	(___flmul@b+1)^0,c
  2942  001078  CFF3 F028          	movff	prodl,___flmul@temp
  2943  00107C  CFF4 F029          	movff	prodh,___flmul@temp+1
  2944  001080  5028               	movf	___flmul@temp^0,w,c
  2945  001082  261E               	addwf	___flmul@grs^0,f,c
  2946  001084  5029               	movf	(___flmul@temp+1)^0,w,c
  2947  001086  221F               	addwfc	(___flmul@grs+1)^0,f,c
  2948  001088  0E00               	movlw	0
  2949  00108A  2220               	addwfc	(___flmul@grs+2)^0,f,c
  2950  00108C  0E00               	movlw	0
  2951  00108E  2221               	addwfc	(___flmul@grs+3)^0,f,c
  2952  001090  5016               	movf	(___flmul@a+1)^0,w,c
  2953  001092  0211               	mulwf	___flmul@b^0,c
  2954  001094  CFF3 F028          	movff	prodl,___flmul@temp
  2955  001098  CFF4 F029          	movff	prodh,___flmul@temp+1
  2956  00109C  5028               	movf	___flmul@temp^0,w,c
  2957  00109E  261E               	addwf	___flmul@grs^0,f,c
  2958  0010A0  5029               	movf	(___flmul@temp+1)^0,w,c
  2959  0010A2  221F               	addwfc	(___flmul@grs+1)^0,f,c
  2960  0010A4  0E00               	movlw	0
  2961  0010A6  2220               	addwfc	(___flmul@grs+2)^0,f,c
  2962  0010A8  0E00               	movlw	0
  2963  0010AA  2221               	addwfc	(___flmul@grs+3)^0,f,c
  2964  0010AC  C020  F021         	movff	___flmul@grs+2,___flmul@grs+3
  2965  0010B0  C01F  F020         	movff	___flmul@grs+1,___flmul@grs+2
  2966  0010B4  C01E  F01F         	movff	___flmul@grs,___flmul@grs+1
  2967  0010B8  6A1E               	clrf	___flmul@grs^0,c
  2968  0010BA  5015               	movf	___flmul@a^0,w,c
  2969  0010BC  0211               	mulwf	___flmul@b^0,c
  2970  0010BE  CFF3 F028          	movff	prodl,___flmul@temp
  2971  0010C2  CFF4 F029          	movff	prodh,___flmul@temp+1
  2972  0010C6  5028               	movf	___flmul@temp^0,w,c
  2973  0010C8  261E               	addwf	___flmul@grs^0,f,c
  2974  0010CA  5029               	movf	(___flmul@temp+1)^0,w,c
  2975  0010CC  221F               	addwfc	(___flmul@grs+1)^0,f,c
  2976  0010CE  0E00               	movlw	0
  2977  0010D0  2220               	addwfc	(___flmul@grs+2)^0,f,c
  2978  0010D2  0E00               	movlw	0
  2979  0010D4  2221               	addwfc	(___flmul@grs+3)^0,f,c
  2980  0010D6  5017               	movf	(___flmul@a+2)^0,w,c
  2981  0010D8  0212               	mulwf	(___flmul@b+1)^0,c
  2982  0010DA  CFF3 F028          	movff	prodl,___flmul@temp
  2983  0010DE  CFF4 F029          	movff	prodh,___flmul@temp+1
  2984  0010E2  5028               	movf	___flmul@temp^0,w,c
  2985  0010E4  2624               	addwf	___flmul@prod^0,f,c
  2986  0010E6  5029               	movf	(___flmul@temp+1)^0,w,c
  2987  0010E8  2225               	addwfc	(___flmul@prod+1)^0,f,c
  2988  0010EA  0E00               	movlw	0
  2989  0010EC  2226               	addwfc	(___flmul@prod+2)^0,f,c
  2990  0010EE  0E00               	movlw	0
  2991  0010F0  2227               	addwfc	(___flmul@prod+3)^0,f,c
  2992  0010F2  5016               	movf	(___flmul@a+1)^0,w,c
  2993  0010F4  0213               	mulwf	(___flmul@b+2)^0,c
  2994  0010F6  CFF3 F028          	movff	prodl,___flmul@temp
  2995  0010FA  CFF4 F029          	movff	prodh,___flmul@temp+1
  2996  0010FE  5028               	movf	___flmul@temp^0,w,c
  2997  001100  2624               	addwf	___flmul@prod^0,f,c
  2998  001102  5029               	movf	(___flmul@temp+1)^0,w,c
  2999  001104  2225               	addwfc	(___flmul@prod+1)^0,f,c
  3000  001106  0E00               	movlw	0
  3001  001108  2226               	addwfc	(___flmul@prod+2)^0,f,c
  3002  00110A  0E00               	movlw	0
  3003  00110C  2227               	addwfc	(___flmul@prod+3)^0,f,c
  3004  00110E  5017               	movf	(___flmul@a+2)^0,w,c
  3005  001110  0213               	mulwf	(___flmul@b+2)^0,c
  3006  001112  CFF3 F028          	movff	prodl,___flmul@temp
  3007  001116  CFF4 F029          	movff	prodh,___flmul@temp+1
  3008  00111A  5028               	movf	___flmul@temp^0,w,c
  3009  00111C  6E19               	movwf	??___flmul^0,c
  3010  00111E  5029               	movf	(___flmul@temp+1)^0,w,c
  3011  001120  6E1A               	movwf	(??___flmul+1)^0,c
  3012  001122  6A1B               	clrf	(??___flmul+2)^0,c
  3013  001124  6A1C               	clrf	(??___flmul+3)^0,c
  3014  001126  C01B  F01C         	movff	??___flmul+2,??___flmul+3
  3015  00112A  C01A  F01B         	movff	??___flmul+1,??___flmul+2
  3016  00112E  C019  F01A         	movff	??___flmul,??___flmul+1
  3017  001132  6A19               	clrf	??___flmul^0,c
  3018  001134  5019               	movf	??___flmul^0,w,c
  3019  001136  2624               	addwf	___flmul@prod^0,f,c
  3020  001138  501A               	movf	(??___flmul+1)^0,w,c
  3021  00113A  2225               	addwfc	(___flmul@prod+1)^0,f,c
  3022  00113C  501B               	movf	(??___flmul+2)^0,w,c
  3023  00113E  2226               	addwfc	(___flmul@prod+2)^0,f,c
  3024  001140  501C               	movf	(??___flmul+3)^0,w,c
  3025  001142  2227               	addwfc	(___flmul@prod+3)^0,f,c
  3026  001144  C01E  F019         	movff	___flmul@grs,??___flmul
  3027  001148  C01F  F01A         	movff	___flmul@grs+1,??___flmul+1
  3028  00114C  C020  F01B         	movff	___flmul@grs+2,??___flmul+2
  3029  001150  C021  F01C         	movff	___flmul@grs+3,??___flmul+3
  3030  001154  0E19               	movlw	25
  3031  001156  EFB2  F008         	goto	u720
  3032  00115A                     u725:
  3033  00115A  90D8               	bcf	status,0,c
  3034  00115C  321C               	rrcf	(??___flmul+3)^0,f,c
  3035  00115E  321B               	rrcf	(??___flmul+2)^0,f,c
  3036  001160  321A               	rrcf	(??___flmul+1)^0,f,c
  3037  001162  3219               	rrcf	??___flmul^0,f,c
  3038  001164                     u720:
  3039  001164  2EE8               	decfsz	wreg,f,c
  3040  001166  EFAD  F008         	goto	u725
  3041  00116A  5019               	movf	??___flmul^0,w,c
  3042  00116C  2624               	addwf	___flmul@prod^0,f,c
  3043  00116E  501A               	movf	(??___flmul+1)^0,w,c
  3044  001170  2225               	addwfc	(___flmul@prod+1)^0,f,c
  3045  001172  501B               	movf	(??___flmul+2)^0,w,c
  3046  001174  2226               	addwfc	(___flmul@prod+2)^0,f,c
  3047  001176  501C               	movf	(??___flmul+3)^0,w,c
  3048  001178  2227               	addwfc	(___flmul@prod+3)^0,f,c
  3049  00117A  C020  F021         	movff	___flmul@grs+2,___flmul@grs+3
  3050  00117E  C01F  F020         	movff	___flmul@grs+1,___flmul@grs+2
  3051  001182  C01E  F01F         	movff	___flmul@grs,___flmul@grs+1
  3052  001186  6A1E               	clrf	___flmul@grs^0,c
  3053  001188  5022               	movf	___flmul@aexp^0,w,c
  3054  00118A  C023  F019         	movff	___flmul@bexp,??___flmul
  3055  00118E  6A1A               	clrf	(??___flmul+1)^0,c
  3056  001190  2619               	addwf	??___flmul^0,f,c
  3057  001192  0E00               	movlw	0
  3058  001194  221A               	addwfc	(??___flmul+1)^0,f,c
  3059  001196  0E82               	movlw	130
  3060  001198  2419               	addwf	??___flmul^0,w,c
  3061  00119A  6E28               	movwf	___flmul@temp^0,c
  3062  00119C  0EFF               	movlw	255
  3063  00119E  201A               	addwfc	(??___flmul+1)^0,w,c
  3064  0011A0  6E29               	movwf	(___flmul@temp+1)^0,c
  3065  0011A2  EFE8  F008         	goto	l1837
  3066  0011A6                     l1831:
  3067  0011A6  90D8               	bcf	status,0,c
  3068  0011A8  3624               	rlcf	___flmul@prod^0,f,c
  3069  0011AA  3625               	rlcf	(___flmul@prod+1)^0,f,c
  3070  0011AC  3626               	rlcf	(___flmul@prod+2)^0,f,c
  3071  0011AE  3627               	rlcf	(___flmul@prod+3)^0,f,c
  3072  0011B0  AE21               	btfss	(___flmul@grs+3)^0,7,c
  3073  0011B2  EFDD  F008         	goto	u731
  3074  0011B6  EFDF  F008         	goto	u730
  3075  0011BA                     u731:
  3076  0011BA  EFE0  F008         	goto	l1097
  3077  0011BE                     u730:
  3078  0011BE  8024               	bsf	___flmul@prod^0,0,c
  3079  0011C0                     l1097:
  3080  0011C0  90D8               	bcf	status,0,c
  3081  0011C2  361E               	rlcf	___flmul@grs^0,f,c
  3082  0011C4  361F               	rlcf	(___flmul@grs+1)^0,f,c
  3083  0011C6  3620               	rlcf	(___flmul@grs+2)^0,f,c
  3084  0011C8  3621               	rlcf	(___flmul@grs+3)^0,f,c
  3085  0011CA  0628               	decf	___flmul@temp^0,f,c
  3086  0011CC  A0D8               	btfss	status,0,c
  3087  0011CE  0629               	decf	(___flmul@temp+1)^0,f,c
  3088  0011D0                     l1837:
  3089  0011D0  AE26               	btfss	(___flmul@prod+2)^0,7,c
  3090  0011D2  EFED  F008         	goto	u741
  3091  0011D6  EFEF  F008         	goto	u740
  3092  0011DA                     u741:
  3093  0011DA  EFD3  F008         	goto	l1831
  3094  0011DE                     u740:
  3095  0011DE  0E00               	movlw	0
  3096  0011E0  6E22               	movwf	___flmul@aexp^0,c
  3097  0011E2  AE21               	btfss	(___flmul@grs+3)^0,7,c
  3098  0011E4  EFF6  F008         	goto	u751
  3099  0011E8  EFF8  F008         	goto	u750
  3100  0011EC                     u751:
  3101  0011EC  EF1C  F009         	goto	l1099
  3102  0011F0                     u750:
  3103  0011F0  0EFF               	movlw	255
  3104  0011F2  141E               	andwf	___flmul@grs^0,w,c
  3105  0011F4  6E19               	movwf	??___flmul^0,c
  3106  0011F6  0EFF               	movlw	255
  3107  0011F8  141F               	andwf	(___flmul@grs+1)^0,w,c
  3108  0011FA  6E1A               	movwf	(??___flmul+1)^0,c
  3109  0011FC  0EFF               	movlw	255
  3110  0011FE  1420               	andwf	(___flmul@grs+2)^0,w,c
  3111  001200  6E1B               	movwf	(??___flmul+2)^0,c
  3112  001202  0E7F               	movlw	127
  3113  001204  1421               	andwf	(___flmul@grs+3)^0,w,c
  3114  001206  6E1C               	movwf	(??___flmul+3)^0,c
  3115  001208  5019               	movf	??___flmul^0,w,c
  3116  00120A  101A               	iorwf	(??___flmul+1)^0,w,c
  3117  00120C  101B               	iorwf	(??___flmul+2)^0,w,c
  3118  00120E  101C               	iorwf	(??___flmul+3)^0,w,c
  3119  001210  B4D8               	btfsc	status,2,c
  3120  001212  EF0D  F009         	goto	u761
  3121  001216  EF0F  F009         	goto	u760
  3122  00121A                     u761:
  3123  00121A  EF13  F009         	goto	l1100
  3124  00121E                     u760:
  3125  00121E                     l1845:
  3126  00121E  0E01               	movlw	1
  3127  001220  6E22               	movwf	___flmul@aexp^0,c
  3128  001222  EF1C  F009         	goto	l1099
  3129  001226                     l1100:
  3130  001226  A024               	btfss	___flmul@prod^0,0,c
  3131  001228  EF18  F009         	goto	u771
  3132  00122C  EF1A  F009         	goto	u770
  3133  001230                     u771:
  3134  001230  EF1C  F009         	goto	l1099
  3135  001234                     u770:
  3136  001234  EF0F  F009         	goto	l1845
  3137  001238                     l1099:
  3138  001238  5022               	movf	___flmul@aexp^0,w,c
  3139  00123A  B4D8               	btfsc	status,2,c
  3140  00123C  EF22  F009         	goto	u781
  3141  001240  EF24  F009         	goto	u780
  3142  001244                     u781:
  3143  001244  EF48  F009         	goto	l1857
  3144  001248                     u780:
  3145  001248  0E01               	movlw	1
  3146  00124A  2624               	addwf	___flmul@prod^0,f,c
  3147  00124C  0E00               	movlw	0
  3148  00124E  2225               	addwfc	(___flmul@prod+1)^0,f,c
  3149  001250  2226               	addwfc	(___flmul@prod+2)^0,f,c
  3150  001252  2227               	addwfc	(___flmul@prod+3)^0,f,c
  3151  001254  A027               	btfss	(___flmul@prod+3)^0,0,c
  3152  001256  EF2F  F009         	goto	u791
  3153  00125A  EF31  F009         	goto	u790
  3154  00125E                     u791:
  3155  00125E  EF48  F009         	goto	l1857
  3156  001262                     u790:
  3157  001262  C024  F019         	movff	___flmul@prod,??___flmul
  3158  001266  C025  F01A         	movff	___flmul@prod+1,??___flmul+1
  3159  00126A  C026  F01B         	movff	___flmul@prod+2,??___flmul+2
  3160  00126E  C027  F01C         	movff	___flmul@prod+3,??___flmul+3
  3161  001272  341C               	rlcf	(??___flmul+3)^0,w,c
  3162  001274  321C               	rrcf	(??___flmul+3)^0,f,c
  3163  001276  321B               	rrcf	(??___flmul+2)^0,f,c
  3164  001278  321A               	rrcf	(??___flmul+1)^0,f,c
  3165  00127A  3219               	rrcf	??___flmul^0,f,c
  3166  00127C  C019  F024         	movff	??___flmul,___flmul@prod
  3167  001280  C01A  F025         	movff	??___flmul+1,___flmul@prod+1
  3168  001284  C01B  F026         	movff	??___flmul+2,___flmul@prod+2
  3169  001288  C01C  F027         	movff	??___flmul+3,___flmul@prod+3
  3170  00128C  4A28               	infsnz	___flmul@temp^0,f,c
  3171  00128E  2A29               	incf	(___flmul@temp+1)^0,f,c
  3172  001290                     l1857:
  3173  001290  BE29               	btfsc	(___flmul@temp+1)^0,7,c
  3174  001292  EF53  F009         	goto	u801
  3175  001296  5029               	movf	(___flmul@temp+1)^0,w,c
  3176  001298  E108               	bnz	u800
  3177  00129A  2828               	incf	___flmul@temp^0,w,c
  3178  00129C  A0D8               	btfss	status,0,c
  3179  00129E  EF53  F009         	goto	u801
  3180  0012A2  EF55  F009         	goto	u800
  3181  0012A6                     u801:
  3182  0012A6  EF5F  F009         	goto	l1861
  3183  0012AA                     u800:
  3184  0012AA  0E00               	movlw	0
  3185  0012AC  6E24               	movwf	___flmul@prod^0,c
  3186  0012AE  0E00               	movlw	0
  3187  0012B0  6E25               	movwf	(___flmul@prod+1)^0,c
  3188  0012B2  0E80               	movlw	128
  3189  0012B4  6E26               	movwf	(___flmul@prod+2)^0,c
  3190  0012B6  0E7F               	movlw	127
  3191  0012B8  6E27               	movwf	(___flmul@prod+3)^0,c
  3192  0012BA  EF8D  F009         	goto	l1873
  3193  0012BE                     l1861:
  3194  0012BE  BE29               	btfsc	(___flmul@temp+1)^0,7,c
  3195  0012C0  EF6C  F009         	goto	u810
  3196  0012C4  5029               	movf	(___flmul@temp+1)^0,w,c
  3197  0012C6  E106               	bnz	u811
  3198  0012C8  0428               	decf	___flmul@temp^0,w,c
  3199  0012CA  B0D8               	btfsc	status,0,c
  3200  0012CC  EF6A  F009         	goto	u811
  3201  0012D0  EF6C  F009         	goto	u810
  3202  0012D4                     u811:
  3203  0012D4  EF78  F009         	goto	l1107
  3204  0012D8                     u810:
  3205  0012D8  0E00               	movlw	0
  3206  0012DA  6E24               	movwf	___flmul@prod^0,c
  3207  0012DC  0E00               	movlw	0
  3208  0012DE  6E25               	movwf	(___flmul@prod+1)^0,c
  3209  0012E0  0E00               	movlw	0
  3210  0012E2  6E26               	movwf	(___flmul@prod+2)^0,c
  3211  0012E4  0E00               	movlw	0
  3212  0012E6  6E27               	movwf	(___flmul@prod+3)^0,c
  3213  0012E8  0E00               	movlw	0
  3214  0012EA  6E1D               	movwf	___flmul@sign^0,c
  3215  0012EC  EF8D  F009         	goto	l1873
  3216  0012F0                     l1107:
  3217  0012F0  C028  F023         	movff	___flmul@temp,___flmul@bexp
  3218  0012F4  0EFF               	movlw	255
  3219  0012F6  1624               	andwf	___flmul@prod^0,f,c
  3220  0012F8  0EFF               	movlw	255
  3221  0012FA  1625               	andwf	(___flmul@prod+1)^0,f,c
  3222  0012FC  0E7F               	movlw	127
  3223  0012FE  1626               	andwf	(___flmul@prod+2)^0,f,c
  3224  001300  0E00               	movlw	0
  3225  001302  1627               	andwf	(___flmul@prod+3)^0,f,c
  3226  001304  A023               	btfss	___flmul@bexp^0,0,c
  3227  001306  EF87  F009         	goto	u821
  3228  00130A  EF89  F009         	goto	u820
  3229  00130E                     u821:
  3230  00130E  EF8A  F009         	goto	l1871
  3231  001312                     u820:
  3232  001312  8E26               	bsf	(___flmul@prod+2)^0,7,c
  3233  001314                     l1871:
  3234  001314  90D8               	bcf	status,0,c
  3235  001316  3023               	rrcf	___flmul@bexp^0,w,c
  3236  001318  6E27               	movwf	(___flmul@prod+3)^0,c
  3237  00131A                     l1873:
  3238  00131A  501D               	movf	___flmul@sign^0,w,c
  3239  00131C  1227               	iorwf	(___flmul@prod+3)^0,f,c
  3240  00131E  C024  F011         	movff	___flmul@prod,?___flmul
  3241  001322  C025  F012         	movff	___flmul@prod+1,?___flmul+1
  3242  001326  C026  F013         	movff	___flmul@prod+2,?___flmul+2
  3243  00132A  C027  F014         	movff	___flmul@prod+3,?___flmul+3
  3244  00132E                     l1094:
  3245  00132E  0012               	return		;funcret
  3246  001330                     __end_of___flmul:
  3247                           	callstack 0
  3248                           
  3249 ;; *************** function _ADCC_StartConversion *****************
  3250 ;; Defined at:
  3251 ;;		line 114 in file "mcc_generated_files/adcc.c"
  3252 ;; Parameters:    Size  Location     Type
  3253 ;;  channel         1    wreg     enum E10053
  3254 ;; Auto vars:     Size  Location     Type
  3255 ;;  channel         1    2[COMRAM] enum E10053
  3256 ;; Return value:  Size  Location     Type
  3257 ;;                  1    wreg      void 
  3258 ;; Registers used:
  3259 ;;		wreg
  3260 ;; Tracked objects:
  3261 ;;		On entry : 0/0
  3262 ;;		On exit  : 0/0
  3263 ;;		Unchanged: 0/0
  3264 ;; Data sizes:     COMRAM   BANK0   BANK1   BANK2   BANK3   BANK4   BANK5   BANK6   BANK7   BANK8   BANK9  BANK10  BANK1
      +1  BANK12  BANK13  BANK14
  3265 ;;      Params:         0       0       0       0       0       0       0       0       0       0       0       0       
      +0       0       0       0
  3266 ;;      Locals:         1       0       0       0       0       0       0       0       0       0       0       0       
      +0       0       0       0
  3267 ;;      Temps:          0       0       0       0       0       0       0       0       0       0       0       0       
      +0       0       0       0
  3268 ;;      Totals:         1       0       0       0       0       0       0       0       0       0       0       0       
      +0       0       0       0
  3269 ;;Total ram usage:        1 bytes
  3270 ;; Hardware stack levels used: 1
  3271 ;; Hardware stack levels required when called: 3
  3272 ;; This function calls:
  3273 ;;		Nothing
  3274 ;; This function is called by:
  3275 ;;		_main
  3276 ;; This function uses a non-reentrant model
  3277 ;;
  3278                           
  3279                           	psect	text16
  3280  001ECA                     __ptext16:
  3281                           	callstack 0
  3282  001ECA                     _ADCC_StartConversion:
  3283                           	callstack 27
  3284                           
  3285                           ;incstack = 0
  3286                           ;ADCC_StartConversion@channel stored from wreg
  3287  001ECA  6E03               	movwf	ADCC_StartConversion@channel^0,c
  3288  001ECC                     
  3289                           ;mcc_generated_files/adcc.c: 114: void ADCC_StartConversion(adcc_channel_t channel);mcc_
      +                          generated_files/adcc.c: 115: {;mcc_generated_files/adcc.c: 117:     ADPCH = channel;
  3290  001ECC  C003  FF5F         	movff	ADCC_StartConversion@channel,3935	;volatile
  3291  001ED0                     
  3292                           ;mcc_generated_files/adcc.c: 120:     ADCON0bits.ADON = 1;
  3293  001ED0  8E60               	bsf	96,7,c	;volatile
  3294  001ED2                     
  3295                           ;mcc_generated_files/adcc.c: 123:     ADCON0bits.ADGO = 1;
  3296  001ED2  8060               	bsf	96,0,c	;volatile
  3297  001ED4  0012               	return		;funcret
  3298  001ED6                     __end_of_ADCC_StartConversion:
  3299                           	callstack 0
  3300                           
  3301 ;; *************** function _ADCC_GetConversionResult *****************
  3302 ;; Defined at:
  3303 ;;		line 132 in file "mcc_generated_files/adcc.c"
  3304 ;; Parameters:    Size  Location     Type
  3305 ;;		None
  3306 ;; Auto vars:     Size  Location     Type
  3307 ;;		None
  3308 ;; Return value:  Size  Location     Type
  3309 ;;                  2    2[COMRAM] unsigned short 
  3310 ;; Registers used:
  3311 ;;		wreg, status,2, status,0
  3312 ;; Tracked objects:
  3313 ;;		On entry : 0/0
  3314 ;;		On exit  : 0/0
  3315 ;;		Unchanged: 0/0
  3316 ;; Data sizes:     COMRAM   BANK0   BANK1   BANK2   BANK3   BANK4   BANK5   BANK6   BANK7   BANK8   BANK9  BANK10  BANK1
      +1  BANK12  BANK13  BANK14
  3317 ;;      Params:         2       0       0       0       0       0       0       0       0       0       0       0       
      +0       0       0       0
  3318 ;;      Locals:         0       0       0       0       0       0       0       0       0       0       0       0       
      +0       0       0       0
  3319 ;;      Temps:          2       0       0       0       0       0       0       0       0       0       0       0       
      +0       0       0       0
  3320 ;;      Totals:         4       0       0       0       0       0       0       0       0       0       0       0       
      +0       0       0       0
  3321 ;;Total ram usage:        4 bytes
  3322 ;; Hardware stack levels used: 1
  3323 ;; Hardware stack levels required when called: 3
  3324 ;; This function calls:
  3325 ;;		Nothing
  3326 ;; This function is called by:
  3327 ;;		_main
  3328 ;; This function uses a non-reentrant model
  3329 ;;
  3330                           
  3331                           	psect	text17
  3332  001EA8                     __ptext17:
  3333                           	callstack 0
  3334  001EA8                     _ADCC_GetConversionResult:
  3335                           	callstack 27
  3336  001EA8                     
  3337                           ;mcc_generated_files/adcc.c: 135:     return ((adc_result_t)((ADRESH << 8) + ADRESL));
  3338  001EA8  5064               	movf	100,w,c	;volatile
  3339  001EAA  6E06               	movwf	(??_ADCC_GetConversionResult+1)^0,c
  3340  001EAC  6A05               	clrf	??_ADCC_GetConversionResult^0,c
  3341  001EAE  5063               	movf	99,w,c	;volatile
  3342  001EB0  2405               	addwf	??_ADCC_GetConversionResult^0,w,c
  3343  001EB2  6E03               	movwf	?_ADCC_GetConversionResult^0,c
  3344  001EB4  0E00               	movlw	0
  3345  001EB6  2006               	addwfc	(??_ADCC_GetConversionResult+1)^0,w,c
  3346  001EB8  6E04               	movwf	(?_ADCC_GetConversionResult+1)^0,c
  3347  001EBA  0012               	return		;funcret
  3348  001EBC                     __end_of_ADCC_GetConversionResult:
  3349                           	callstack 0
  3350                           
  3351 ;; *************** function _INTERRUPT_InterruptManager *****************
  3352 ;; Defined at:
  3353 ;;		line 58 in file "mcc_generated_files/interrupt_manager.c"
  3354 ;; Parameters:    Size  Location     Type
  3355 ;;		None
  3356 ;; Auto vars:     Size  Location     Type
  3357 ;;		None
  3358 ;; Return value:  Size  Location     Type
  3359 ;;                  1    wreg      void 
  3360 ;; Registers used:
  3361 ;;		wreg, status,2, status,0, pcl, pclath, pclatu, tosl, cstack
  3362 ;; Tracked objects:
  3363 ;;		On entry : 0/0
  3364 ;;		On exit  : 0/0
  3365 ;;		Unchanged: 0/0
  3366 ;; Data sizes:     COMRAM   BANK0   BANK1   BANK2   BANK3   BANK4   BANK5   BANK6   BANK7   BANK8   BANK9  BANK10  BANK1
      +1  BANK12  BANK13  BANK14
  3367 ;;      Params:         0       0       0       0       0       0       0       0       0       0       0       0       
      +0       0       0       0
  3368 ;;      Locals:         0       0       0       0       0       0       0       0       0       0       0       0       
      +0       0       0       0
  3369 ;;      Temps:          2       0       0       0       0       0       0       0       0       0       0       0       
      +0       0       0       0
  3370 ;;      Totals:         2       0       0       0       0       0       0       0       0       0       0       0       
      +0       0       0       0
  3371 ;;Total ram usage:        2 bytes
  3372 ;; Hardware stack levels used: 1
  3373 ;; Hardware stack levels required when called: 2
  3374 ;; This function calls:
  3375 ;;		_ADCC_ISR
  3376 ;; This function is called by:
  3377 ;;		Interrupt level 2
  3378 ;; This function uses a non-reentrant model
  3379 ;;
  3380                           
  3381                           	psect	intcode
  3382  000008                     __pintcode:
  3383                           	callstack 0
  3384  000008                     _INTERRUPT_InterruptManager:
  3385                           	callstack 25
  3386                           
  3387                           ;incstack = 0
  3388  000008  8251               	bsf	int$flags,1,c	;set compiler interrupt flag (level 2)
  3389  00000A  CFFA F001          	movff	pclath,??_INTERRUPT_InterruptManager
  3390  00000E  CFFB F002          	movff	pclatu,??_INTERRUPT_InterruptManager+1
  3391  000012                     
  3392                           ;mcc_generated_files/interrupt_manager.c: 61:     if(INTCONbits.PEIE == 1)
  3393  000012  ACF2               	btfss	242,6,c	;volatile
  3394  000014  EF0E  F000         	goto	i2u61_41
  3395  000018  EF10  F000         	goto	i2u61_40
  3396  00001C                     i2u61_41:
  3397  00001C  EF21  F000         	goto	i2l473
  3398  000020                     i2u61_40:
  3399  000020                     
  3400                           ;mcc_generated_files/interrupt_manager.c: 62:     {;mcc_generated_files/interrupt_manage
      +                          r.c: 63:         if(PIE1bits.ADIE == 1 && PIR1bits.ADIF == 1)
  3401  000020  010E               	movlb	14	; () banked
  3402  000022  A1C3               	btfss	195,0,b	;volatile
  3403  000024  EF16  F000         	goto	i2u62_41
  3404  000028  EF18  F000         	goto	i2u62_40
  3405  00002C                     i2u62_41:
  3406  00002C  EF21  F000         	goto	i2l473
  3407  000030                     i2u62_40:
  3408  000030                     
  3409                           ; BSR set to: 14
  3410  000030  A1CB               	btfss	203,0,b	;volatile
  3411  000032  EF1D  F000         	goto	i2u63_41
  3412  000036  EF1F  F000         	goto	i2u63_40
  3413  00003A                     i2u63_41:
  3414  00003A  EF21  F000         	goto	i2l473
  3415  00003E                     i2u63_40:
  3416  00003E                     
  3417                           ; BSR set to: 14
  3418                           ;mcc_generated_files/interrupt_manager.c: 64:         {;mcc_generated_files/interrupt_ma
      +                          nager.c: 65:             ADCC_ISR();
  3419  00003E  ECEC  F00E         	call	_ADCC_ISR	;wreg free
  3420  000042                     i2l473:
  3421  000042  C002  FFFB         	movff	??_INTERRUPT_InterruptManager+1,pclatu
  3422  000046  C001  FFFA         	movff	??_INTERRUPT_InterruptManager,pclath
  3423  00004A  9251               	bcf	int$flags,1,c	;clear compiler interrupt flag (level 2)
  3424  00004C  0011               	retfie		f
  3425  00004E                     __end_of_INTERRUPT_InterruptManager:
  3426                           	callstack 0
  3427                           
  3428 ;; *************** function _ADCC_ISR *****************
  3429 ;; Defined at:
  3430 ;;		line 298 in file "mcc_generated_files/adcc.c"
  3431 ;; Parameters:    Size  Location     Type
  3432 ;;		None
  3433 ;; Auto vars:     Size  Location     Type
  3434 ;;		None
  3435 ;; Return value:  Size  Location     Type
  3436 ;;                  1    wreg      void 
  3437 ;; Registers used:
  3438 ;;		wreg, status,2, status,0, pcl, pclath, pclatu, tosl, cstack
  3439 ;; Tracked objects:
  3440 ;;		On entry : 0/0
  3441 ;;		On exit  : 0/0
  3442 ;;		Unchanged: 0/0
  3443 ;; Data sizes:     COMRAM   BANK0   BANK1   BANK2   BANK3   BANK4   BANK5   BANK6   BANK7   BANK8   BANK9  BANK10  BANK1
      +1  BANK12  BANK13  BANK14
  3444 ;;      Params:         0       0       0       0       0       0       0       0       0       0       0       0       
      +0       0       0       0
  3445 ;;      Locals:         0       0       0       0       0       0       0       0       0       0       0       0       
      +0       0       0       0
  3446 ;;      Temps:          0       0       0       0       0       0       0       0       0       0       0       0       
      +0       0       0       0
  3447 ;;      Totals:         0       0       0       0       0       0       0       0       0       0       0       0       
      +0       0       0       0
  3448 ;;Total ram usage:        0 bytes
  3449 ;; Hardware stack levels used: 1
  3450 ;; Hardware stack levels required when called: 1
  3451 ;; This function calls:
  3452 ;;		Absolute function
  3453 ;;		_ADCC_DefaultInterruptHandler
  3454 ;; This function is called by:
  3455 ;;		_INTERRUPT_InterruptManager
  3456 ;; This function uses a non-reentrant model
  3457 ;;
  3458                           
  3459                           	psect	text19
  3460  001DD8                     __ptext19:
  3461                           	callstack 0
  3462  001DD8                     _ADCC_ISR:
  3463                           	callstack 25
  3464  001DD8                     
  3465                           ;mcc_generated_files/adcc.c: 301:     PIR1bits.ADIF = 0;
  3466  001DD8  010E               	movlb	14	; () banked
  3467  001DDA  91CB               	bcf	203,0,b	;volatile
  3468  001DDC                     
  3469                           ; BSR set to: 14
  3470                           ;mcc_generated_files/adcc.c: 303:     if (ADCC_ADI_InterruptHandler)
  3471  001DDC  504E               	movf	_ADCC_ADI_InterruptHandler^0,w,c
  3472  001DDE  104F               	iorwf	(_ADCC_ADI_InterruptHandler+1)^0,w,c
  3473  001DE0  1050               	iorwf	(_ADCC_ADI_InterruptHandler+2)^0,w,c
  3474  001DE2  B4D8               	btfsc	status,2,c
  3475  001DE4  EFF6  F00E         	goto	i2u37_41
  3476  001DE8  EFF8  F00E         	goto	i2u37_40
  3477  001DEC                     i2u37_41:
  3478  001DEC  EF05  F00F         	goto	i2l252
  3479  001DF0                     i2u37_40:
  3480  001DF0                     
  3481                           ; BSR set to: 14
  3482                           ;mcc_generated_files/adcc.c: 304:             ADCC_ADI_InterruptHandler();
  3483  001DF0  D802               	call	i2u38_48
  3484  001DF2  EF05  F00F         	goto	i2u38_49
  3485  001DF6                     i2u38_48:
  3486  001DF6  0005               	push	
  3487  001DF8  6EFA               	movwf	pclath,c
  3488  001DFA  504E               	movf	_ADCC_ADI_InterruptHandler^0,w,c
  3489  001DFC  6EFD               	movwf	tosl,c
  3490  001DFE  504F               	movf	(_ADCC_ADI_InterruptHandler+1)^0,w,c
  3491  001E00  6EFE               	movwf	tosh,c
  3492  001E02  5050               	movf	(_ADCC_ADI_InterruptHandler+2)^0,w,c
  3493  001E04  6EFF               	movwf	tosu,c
  3494  001E06  50FA               	movf	pclath,w,c
  3495  001E08  0012               	return		;indir
  3496  001E0A                     i2u38_49:
  3497  001E0A                     i2l252:
  3498  001E0A  0012               	return		;funcret
  3499  001E0C                     __end_of_ADCC_ISR:
  3500                           	callstack 0
  3501                           
  3502 ;; *************** function _ADCC_DefaultInterruptHandler *****************
  3503 ;; Defined at:
  3504 ;;		line 311 in file "mcc_generated_files/adcc.c"
  3505 ;; Parameters:    Size  Location     Type
  3506 ;;		None
  3507 ;; Auto vars:     Size  Location     Type
  3508 ;;		None
  3509 ;; Return value:  Size  Location     Type
  3510 ;;                  1    wreg      void 
  3511 ;; Registers used:
  3512 ;;		None
  3513 ;; Tracked objects:
  3514 ;;		On entry : 0/0
  3515 ;;		On exit  : 0/0
  3516 ;;		Unchanged: 0/0
  3517 ;; Data sizes:     COMRAM   BANK0   BANK1   BANK2   BANK3   BANK4   BANK5   BANK6   BANK7   BANK8   BANK9  BANK10  BANK1
      +1  BANK12  BANK13  BANK14
  3518 ;;      Params:         0       0       0       0       0       0       0       0       0       0       0       0       
      +0       0       0       0
  3519 ;;      Locals:         0       0       0       0       0       0       0       0       0       0       0       0       
      +0       0       0       0
  3520 ;;      Temps:          0       0       0       0       0       0       0       0       0       0       0       0       
      +0       0       0       0
  3521 ;;      Totals:         0       0       0       0       0       0       0       0       0       0       0       0       
      +0       0       0       0
  3522 ;;Total ram usage:        0 bytes
  3523 ;; Hardware stack levels used: 1
  3524 ;; This function calls:
  3525 ;;		Nothing
  3526 ;; This function is called by:
  3527 ;;		_ADCC_Initialize
  3528 ;;		_ADCC_ISR
  3529 ;; This function uses a non-reentrant model
  3530 ;;
  3531                           
  3532                           	psect	text20
  3533  001EE2                     __ptext20:
  3534                           	callstack 0
  3535  001EE2                     _ADCC_DefaultInterruptHandler:
  3536                           	callstack 25
  3537  001EE2  0012               	return		;funcret
  3538  001EE4                     __end_of_ADCC_DefaultInterruptHandler:
  3539                           	callstack 0
  3540                           
  3541                           	psect	text21
  3542  000000                     __ptext21:
  3543                           	callstack 0
  3544  000000                     
  3545                           	psect	rparam
  3546  0000                     
  3547                           	psect	temp
  3548  000051                     btemp:
  3549                           	callstack 0
  3550  000051                     	ds	1
  3551  0000                     int$flags	set	btemp
  3552  0000                     wtemp8	set	btemp+1
  3553  0000                     ttemp5	set	btemp+1
  3554  0000                     ttemp6	set	btemp+4
  3555  0000                     ttemp7	set	btemp+8
  3556                           
  3557                           	psect	idloc
  3558                           
  3559                           ;Config register IDLOC0 @ 0x200000
  3560                           ;	unspecified, using default values
  3561  200000                     	org	2097152
  3562  200000  0FFF               	dw	4095
  3563                           
  3564                           ;Config register IDLOC1 @ 0x200002
  3565                           ;	unspecified, using default values
  3566  200002                     	org	2097154
  3567  200002  0FFF               	dw	4095
  3568                           
  3569                           ;Config register IDLOC2 @ 0x200004
  3570                           ;	unspecified, using default values
  3571  200004                     	org	2097156
  3572  200004  0FFF               	dw	4095
  3573                           
  3574                           ;Config register IDLOC3 @ 0x200006
  3575                           ;	unspecified, using default values
  3576  200006                     	org	2097158
  3577  200006  0FFF               	dw	4095
  3578                           
  3579                           ;Config register IDLOC4 @ 0x200008
  3580                           ;	unspecified, using default values
  3581  200008                     	org	2097160
  3582  200008  0FFF               	dw	4095
  3583                           
  3584                           ;Config register IDLOC5 @ 0x20000A
  3585                           ;	unspecified, using default values
  3586  20000A                     	org	2097162
  3587  20000A  0FFF               	dw	4095
  3588                           
  3589                           ;Config register IDLOC6 @ 0x20000C
  3590                           ;	unspecified, using default values
  3591  20000C                     	org	2097164
  3592  20000C  0FFF               	dw	4095
  3593                           
  3594                           ;Config register IDLOC7 @ 0x20000E
  3595                           ;	unspecified, using default values
  3596  20000E                     	org	2097166
  3597  20000E  0FFF               	dw	4095
  3598                           
  3599                           	psect	config
  3600                           
  3601                           ;Config register CONFIG1L @ 0x300000
  3602                           ;	External Oscillator mode Selection bits
  3603                           ;	FEXTOSC = OFF, Oscillator not enabled
  3604                           ;	Power-up default value for COSC bits
  3605                           ;	RSTOSC = HFINTOSC_64MHZ, HFINTOSC with HFFRQ = 64 MHz and CDIV = 1:1
  3606  300000                     	org	3145728
  3607  300000  8C                 	db	140
  3608                           
  3609                           ;Config register CONFIG1H @ 0x300001
  3610                           ;	Clock Out Enable bit
  3611                           ;	CLKOUTEN = OFF, CLKOUT function is disabled
  3612                           ;	Clock Switch Enable bit
  3613                           ;	CSWEN = ON, Writing to NOSC and NDIV is allowed
  3614                           ;	Fail-Safe Clock Monitor Enable bit
  3615                           ;	FCMEN = ON, Fail-Safe Clock Monitor enabled
  3616  300001                     	org	3145729
  3617  300001  FF                 	db	255
  3618                           
  3619                           ;Config register CONFIG2L @ 0x300002
  3620                           ;	Master Clear Enable bit
  3621                           ;	MCLRE = EXTMCLR, If LVP = 0, MCLR pin is MCLR; If LVP = 1, RE3 pin function is MCLR
  3622                           ;	Power-up Timer Enable bit
  3623                           ;	PWRTE = OFF, Power up timer disabled
  3624                           ;	Low-power BOR enable bit
  3625                           ;	LPBOREN = OFF, ULPBOR disabled
  3626                           ;	Brown-out Reset Enable bits
  3627                           ;	BOREN = SBORDIS, Brown-out Reset enabled , SBOREN bit is ignored
  3628  300002                     	org	3145730
  3629  300002  FF                 	db	255
  3630                           
  3631                           ;Config register CONFIG2H @ 0x300003
  3632                           ;	Brown Out Reset Voltage selection bits
  3633                           ;	BORV = VBOR_2P45, Brown-out Reset Voltage (VBOR) set to 2.45V
  3634                           ;	ZCD Disable bit
  3635                           ;	ZCD = OFF, ZCD disabled. ZCD can be enabled by setting the ZCDSEN bit of ZCDCON
  3636                           ;	PPSLOCK bit One-Way Set Enable bit
  3637                           ;	PPS1WAY = ON, PPSLOCK bit can be cleared and set only once; PPS registers remain locke
      +                          d after one clear/set cycle
  3638                           ;	Stack Full/Underflow Reset Enable bit
  3639                           ;	STVREN = ON, Stack full/underflow will cause Reset
  3640                           ;	Debugger Enable bit
  3641                           ;	DEBUG = OFF, Background debugger disabled
  3642                           ;	Extended Instruction Set Enable bit
  3643                           ;	XINST = OFF, Extended Instruction Set and Indexed Addressing Mode disabled
  3644  300003                     	org	3145731
  3645  300003  FF                 	db	255
  3646                           
  3647                           ;Config register CONFIG3L @ 0x300004
  3648                           ;	WDT Period Select bits
  3649                           ;	WDTCPS = WDTCPS_31, Divider ratio 1:65536; software control of WDTPS
  3650                           ;	WDT operating mode
  3651                           ;	WDTE = OFF, WDT Disabled
  3652  300004                     	org	3145732
  3653  300004  9F                 	db	159
  3654                           
  3655                           ;Config register CONFIG3H @ 0x300005
  3656                           ;	WDT Window Select bits
  3657                           ;	WDTCWS = WDTCWS_7, window always open (100%); software control; keyed access not requi
      +                          red
  3658                           ;	WDT input clock selector
  3659                           ;	WDTCCS = SC, Software Control
  3660  300005                     	org	3145733
  3661  300005  FF                 	db	255
  3662                           
  3663                           ;Config register CONFIG4L @ 0x300006
  3664                           ;	Write Protection Block 0
  3665                           ;	WRT0 = OFF, Block 0 (000800-003FFFh) not write-protected
  3666                           ;	Write Protection Block 1
  3667                           ;	WRT1 = OFF, Block 1 (004000-007FFFh) not write-protected
  3668                           ;	Write Protection Block 2
  3669                           ;	WRT2 = OFF, Block 2 (008000-00BFFFh) not write-protected
  3670                           ;	Write Protection Block 3
  3671                           ;	WRT3 = OFF, Block 3 (00C000-00FFFFh) not write-protected
  3672                           ;	Write Protection Block 3
  3673                           ;	WRT4 = OFF, Block 4 (010000-013FFFh) not write-protected
  3674                           ;	Write Protection Block 3
  3675                           ;	WRT5 = OFF, Block 5 (014000-017FFFh) not write-protected
  3676                           ;	Write Protection Block 3
  3677                           ;	WRT6 = OFF, Block 6 (018000-01BFFFh) not write-protected
  3678                           ;	Write Protection Block 3
  3679                           ;	WRT7 = OFF, Block 7 (01C000-01FFFFh) not write-protected
  3680  300006                     	org	3145734
  3681  300006  FF                 	db	255
  3682                           
  3683                           ;Config register CONFIG4H @ 0x300007
  3684                           ;	Configuration Register Write Protection bit
  3685                           ;	WRTC = OFF, Configuration registers (300000-30000Bh) not write-protected
  3686                           ;	Boot Block Write Protection bit
  3687                           ;	WRTB = OFF, Boot Block (000000-0007FFh) not write-protected
  3688                           ;	Data EEPROM Write Protection bit
  3689                           ;	WRTD = OFF, Data EEPROM not write-protected
  3690                           ;	Scanner Enable bit
  3691                           ;	SCANE = ON, Scanner module is available for use, SCANMD bit can control the module
  3692                           ;	Low Voltage Programming Enable bit
  3693                           ;	LVP = ON, Low voltage programming enabled. MCLR/VPP pin function is MCLR. MCLRE config
      +                          uration bit is ignored
  3694  300007                     	org	3145735
  3695  300007  FF                 	db	255
  3696                           
  3697                           ;Config register CONFIG5L @ 0x300008
  3698                           ;	UserNVM Program Memory Code Protection bit
  3699                           ;	CP = OFF, UserNVM code protection disabled
  3700                           ;	DataNVM Memory Code Protection bit
  3701                           ;	CPD = OFF, DataNVM code protection disabled
  3702  300008                     	org	3145736
  3703  300008  FF                 	db	255
  3704                           
  3705                           ;Config register CONFIG5H @ 0x300009
  3706                           ;	unspecified, using default values
  3707  300009                     	org	3145737
  3708  300009  FF                 	db	255
  3709                           
  3710                           ;Config register CONFIG6L @ 0x30000A
  3711                           ;	Table Read Protection Block 0
  3712                           ;	EBTR0 = OFF, Block 0 (000800-003FFFh) not protected from table reads executed in other
      +                           blocks
  3713                           ;	Table Read Protection Block 1
  3714                           ;	EBTR1 = OFF, Block 1 (004000-007FFFh) not protected from table reads executed in other
      +                           blocks
  3715                           ;	Table Read Protection Block 2
  3716                           ;	EBTR2 = OFF, Block 2 (008000-00BFFFh) not protected from table reads executed in other
      +                           blocks
  3717                           ;	Table Read Protection Block 3
  3718                           ;	EBTR3 = OFF, Block 3 (00C000-00FFFFh) not protected from table reads executed in other
      +                           blocks
  3719                           ;	Table Read Protection Block 4
  3720                           ;	EBTR4 = OFF, Block 4 (010000-013FFFh) not protected from table reads executed in other
      +                           blocks
  3721                           ;	Table Read Protection Block 5
  3722                           ;	EBTR5 = OFF, Block 5 (014000-017FFFh) not protected from table reads executed in other
      +                           blocks
  3723                           ;	Table Read Protection Block 6
  3724                           ;	EBTR6 = OFF, Block 6 (018000-01BFFFh) not protected from table reads executed in other
      +                           blocks
  3725                           ;	Table Read Protection Block 7
  3726                           ;	EBTR7 = OFF, Block 7 (01C000-01FFFFh) not protected from table reads executed in other
      +                           blocks
  3727  30000A                     	org	3145738
  3728  30000A  FF                 	db	255
  3729                           
  3730                           ;Config register CONFIG6H @ 0x30000B
  3731                           ;	Boot Block Table Read Protection bit
  3732                           ;	EBTRB = OFF, Boot Block (000000-0007FFh) not protected from table reads executed in ot
      +                          her blocks
  3733  30000B                     	org	3145739
  3734  30000B  FF                 	db	255
  3735                           tosu	equ	0xFFF
  3736                           tosh	equ	0xFFE
  3737                           tosl	equ	0xFFD
  3738                           stkptr	equ	0xFFC
  3739                           pclatu	equ	0xFFB
  3740                           pclath	equ	0xFFA
  3741                           pcl	equ	0xFF9
  3742                           tblptru	equ	0xFF8
  3743                           tblptrh	equ	0xFF7
  3744                           tblptrl	equ	0xFF6
  3745                           tablat	equ	0xFF5
  3746                           prodh	equ	0xFF4
  3747                           prodl	equ	0xFF3
  3748                           indf0	equ	0xFEF
  3749                           postinc0	equ	0xFEE
  3750                           postdec0	equ	0xFED
  3751                           preinc0	equ	0xFEC
  3752                           plusw0	equ	0xFEB
  3753                           fsr0h	equ	0xFEA
  3754                           fsr0l	equ	0xFE9
  3755                           wreg	equ	0xFE8
  3756                           indf1	equ	0xFE7
  3757                           postinc1	equ	0xFE6
  3758                           postdec1	equ	0xFE5
  3759                           preinc1	equ	0xFE4
  3760                           plusw1	equ	0xFE3
  3761                           fsr1h	equ	0xFE2
  3762                           fsr1l	equ	0xFE1
  3763                           bsr	equ	0xFE0
  3764                           indf2	equ	0xFDF
  3765                           postinc2	equ	0xFDE
  3766                           postdec2	equ	0xFDD
  3767                           preinc2	equ	0xFDC
  3768                           plusw2	equ	0xFDB
  3769                           fsr2h	equ	0xFDA
  3770                           fsr2l	equ	0xFD9
  3771                           status	equ	0xFD8

Data Sizes:
    Strings     0
    Constant    4
    Data        800
    BSS         208
    Persistent  3
    Stack       0

Auto Spaces:
    Space          Size  Autos    Used
    COMRAM           94     69      80
    BANK0           160      0       0
    BANK1           256      0     200
    BANK2           256      0     200
    BANK3           256      0     200
    BANK4           256      0     200
    BANK5           256      0     200
    BANK6           256      0       0
    BANK7           256      0       0
    BANK8           256      0       0
    BANK9           256      0       0
    BANK10          256      0       0
    BANK11          256      0       0
    BANK12          256      0       0
    BANK13          256      0       0
    BANK14          136      0       0

Pointer List with Targets:

    ADCC_SetADIInterruptHandler@InterruptHandler	PTR FTN()void  size(3) Largest target is 1
		 -> ADCC_DefaultInterruptHandler(), 

    ADCC_ADI_InterruptHandler	PTR FTN()void  size(3) Largest target is 1
		 -> Absolute function(), ADCC_DefaultInterruptHandler(), 


Critical Paths under _main in COMRAM

    _main->_PeriodCalc
    _ADCC_Initialize->_ADCC_SetADIInterruptHandler
    _PeriodCalc->___fltol
    ___fltol->___flmul
    ___flmul->___xxtofl

Critical Paths under _INTERRUPT_InterruptManager in COMRAM

    None.

Critical Paths under _main in BANK0

    None.

Critical Paths under _INTERRUPT_InterruptManager in BANK0

    None.

Critical Paths under _main in BANK1

    None.

Critical Paths under _INTERRUPT_InterruptManager in BANK1

    None.

Critical Paths under _main in BANK2

    None.

Critical Paths under _INTERRUPT_InterruptManager in BANK2

    None.

Critical Paths under _main in BANK3

    None.

Critical Paths under _INTERRUPT_InterruptManager in BANK3

    None.

Critical Paths under _main in BANK4

    None.

Critical Paths under _INTERRUPT_InterruptManager in BANK4

    None.

Critical Paths under _main in BANK5

    None.

Critical Paths under _INTERRUPT_InterruptManager in BANK5

    None.

Critical Paths under _main in BANK6

    None.

Critical Paths under _INTERRUPT_InterruptManager in BANK6

    None.

Critical Paths under _main in BANK7

    None.

Critical Paths under _INTERRUPT_InterruptManager in BANK7

    None.

Critical Paths under _main in BANK8

    None.

Critical Paths under _INTERRUPT_InterruptManager in BANK8

    None.

Critical Paths under _main in BANK9

    None.

Critical Paths under _INTERRUPT_InterruptManager in BANK9

    None.

Critical Paths under _main in BANK10

    None.

Critical Paths under _INTERRUPT_InterruptManager in BANK10

    None.

Critical Paths under _main in BANK11

    None.

Critical Paths under _INTERRUPT_InterruptManager in BANK11

    None.

Critical Paths under _main in BANK12

    None.

Critical Paths under _INTERRUPT_InterruptManager in BANK12

    None.

Critical Paths under _main in BANK13

    None.

Critical Paths under _INTERRUPT_InterruptManager in BANK13

    None.

Critical Paths under _main in BANK14

    None.

Critical Paths under _INTERRUPT_InterruptManager in BANK14

    None.

Call Graph Tables:

 ---------------------------------------------------------------------------------
 (Depth) Function   	        Calls       Base Space   Used Autos Params    Refs
 ---------------------------------------------------------------------------------
 (0) _main                                                14    14      0    3540
                                             55 COMRAM    14    14      0
           _ADCC_GetConversionResult
               _ADCC_StartConversion
                         _PeriodCalc
                     _SPI1_WriteByte
                     _SPIConvertData
                  _SYSTEM_Initialize
                            _delayUS
 ---------------------------------------------------------------------------------
 (1) _delayUS                                              8     4      4     122
                                              2 COMRAM     8     4      4
 ---------------------------------------------------------------------------------
 (1) _SYSTEM_Initialize                                    0     0      0      98
                    _ADCC_Initialize
               _INTERRUPT_Initialize
              _OSCILLATOR_Initialize
             _PIN_MANAGER_Initialize
                     _PMD_Initialize
                    _SPI1_Initialize
 ---------------------------------------------------------------------------------
 (2) _SPI1_Initialize                                      0     0      0       0
 ---------------------------------------------------------------------------------
 (2) _PMD_Initialize                                       0     0      0       0
 ---------------------------------------------------------------------------------
 (2) _PIN_MANAGER_Initialize                               0     0      0       0
 ---------------------------------------------------------------------------------
 (2) _OSCILLATOR_Initialize                                0     0      0       0
 ---------------------------------------------------------------------------------
 (2) _INTERRUPT_Initialize                                 0     0      0       0
 ---------------------------------------------------------------------------------
 (2) _ADCC_Initialize                                      0     0      0      98
        _ADCC_SetADIInterruptHandler
 ---------------------------------------------------------------------------------
 (3) _ADCC_SetADIInterruptHandler                          3     0      3      98
                                              2 COMRAM     3     0      3
 ---------------------------------------------------------------------------------
 (1) _SPIConvertData                                       6     4      2     121
                                              2 COMRAM     6     4      2
 ---------------------------------------------------------------------------------
 (1) _SPI1_WriteByte                                       1     1      0      22
                                              2 COMRAM     1     1      0
 ---------------------------------------------------------------------------------
 (1) _PeriodCalc                                           4     2      2    2568
                                             51 COMRAM     4     2      2
                            ___flmul
                            ___fltol
                           ___xxtofl
 ---------------------------------------------------------------------------------
 (2) ___xxtofl                                            14    10      4     398
                                              2 COMRAM    14    10      4
 ---------------------------------------------------------------------------------
 (2) ___fltol                                             10     6      4     305
                                             41 COMRAM    10     6      4
                            ___flmul (ARG)
                           ___xxtofl (ARG)
 ---------------------------------------------------------------------------------
 (2) ___flmul                                             25    17      8    1744
                                             16 COMRAM    25    17      8
                           ___xxtofl (ARG)
 ---------------------------------------------------------------------------------
 (1) _ADCC_StartConversion                                 1     1      0      22
                                              2 COMRAM     1     1      0
 ---------------------------------------------------------------------------------
 (1) _ADCC_GetConversionResult                             4     2      2       0
                                              2 COMRAM     4     2      2
 ---------------------------------------------------------------------------------
 Estimated maximum stack depth 3
 ---------------------------------------------------------------------------------
 (Depth) Function   	        Calls       Base Space   Used Autos Params    Refs
 ---------------------------------------------------------------------------------
 (4) _INTERRUPT_InterruptManager                           2     2      0       0
                                              0 COMRAM     2     2      0
                           _ADCC_ISR
 ---------------------------------------------------------------------------------
 (5) _ADCC_ISR                                             0     0      0       0
                   Absolute function *
       _ADCC_DefaultInterruptHandler *
 ---------------------------------------------------------------------------------
 (6) _ADCC_DefaultInterruptHandler                         0     0      0       0
 ---------------------------------------------------------------------------------
 (6) Absolute function(Fake)                               0     0      0       0
 ---------------------------------------------------------------------------------
 Estimated maximum stack depth 6
 ---------------------------------------------------------------------------------

 Call Graph Graphs:

 _main (ROOT)
   _ADCC_GetConversionResult
   _ADCC_StartConversion
   _PeriodCalc
     ___flmul
       ___xxtofl (ARG)
     ___fltol
       ___flmul (ARG)
       ___xxtofl (ARG)
     ___xxtofl
   _SPI1_WriteByte
   _SPIConvertData
   _SYSTEM_Initialize
     _ADCC_Initialize
       _ADCC_SetADIInterruptHandler
     _INTERRUPT_Initialize
     _OSCILLATOR_Initialize
     _PIN_MANAGER_Initialize
     _PMD_Initialize
     _SPI1_Initialize
   _delayUS

 _INTERRUPT_InterruptManager (ROOT)
   _ADCC_ISR
     Absolute function(Fake) *
     _ADCC_DefaultInterruptHandler *

 Address spaces:
Name               Size   Autos  Total    Cost      Usage
BIGRAM             E87      0       0      54        0.0%
EEDATA             400      0       0       0        0.0%
BITBANK13          100      0       0      30        0.0%
BANK13             100      0       0      31        0.0%
BITBANK12          100      0       0      28        0.0%
BANK12             100      0       0      29        0.0%
BITBANK11          100      0       0      26        0.0%
BANK11             100      0       0      27        0.0%
BITBANK10          100      0       0      24        0.0%
BANK10             100      0       0      25        0.0%
BITBANK9           100      0       0      22        0.0%
BANK9              100      0       0      23        0.0%
BITBANK8           100      0       0      20        0.0%
BANK8              100      0       0      21        0.0%
BITBANK7           100      0       0      18        0.0%
BANK7              100      0       0      19        0.0%
BITBANK6           100      0       0      16        0.0%
BANK6              100      0       0      17        0.0%
BITBANK5           100      0       0      14        0.0%
BANK5              100      0      C8      15       78.1%
BITBANK4           100      0       0      12        0.0%
BANK4              100      0      C8      13       78.1%
BITBANK3           100      0       0      10        0.0%
BANK3              100      0      C8      11       78.1%
BITBANK2           100      0       0       8        0.0%
BANK2              100      0      C8       9       78.1%
BITBANK1           100      0       0       6        0.0%
BANK1              100      0      C8       7       78.1%
BITBANK0            A0      0       0       4        0.0%
BANK0               A0      0       0       5        0.0%
BITBANK14           88      0       0      32        0.0%
BANK14              88      0       0      33        0.0%
BITCOMRAM           5E      0       0       0        0.0%
COMRAM              5E     45      50       1       85.1%
BITBIGSFRhhhl       5A      0       0      35        0.0%
BITBIGSFRllllll     2A      0       0      52        0.0%
BITBIGSFRllhhll     27      0       0      39        0.0%
BITBIGSFRllllll     14      0       0      43        0.0%
BITBIGSFRllllll     10      0       0      44        0.0%
BITBIGSFRllhhhh      F      0       0      38        0.0%
BITBIGSFRhhhh        D      0       0      34        0.0%
BITBIGSFRllllll      A      0       0      48        0.0%
BITBIGSFRllllll      A      0       0      51        0.0%
BITBIGSFRllllll      7      0       0      50        0.0%
BITBIGSFRhhll        4      0       0      37        0.0%
BITBIGSFRlllllh      3      0       0      42        0.0%
BITBIGSFRllllh       3      0       0      41        0.0%
BITBIGSFRllhl        3      0       0      40        0.0%
BITBIGSFRllllll      2      0       0      45        0.0%
BITBIGSFRhhlh        1      0       0      36        0.0%
BITBIGSFRllllll      1      0       0      46        0.0%
BITBIGSFRllllll      1      0       0      47        0.0%
BITBIGSFRllllll      1      0       0      49        0.0%
BIGSFR               0      0       0     200        0.0%
BITSFR_2             0      0       0     200        0.0%
SFR_2                0      0       0     200        0.0%
BITSFR_1             0      0       0     200        0.0%
SFR_1                0      0       0     200        0.0%
BITSFR               0      0       0     200        0.0%
SFR                  0      0       0     200        0.0%
STACK                0      0       0       2        0.0%
NULL                 0      0       0       0        0.0%
ABS                  0      0     438      53        0.0%
DATA                 0      0     438       3        0.0%
CODE                 0      0       0       0        0.0%


Microchip Technology PIC18 Macro Assembler V2.35 build 20211206165544 
Symbol Table                                                                                   Tue Mar 01 17:21:02 2022

                         SPI1_WriteByte@byte 0003                                           l81 1CCC  
                                        l301 1E74                                          l170 1ED4  
                                        l330 1E58                                          l255 1EC8  
                                        l167 1D32                                          l176 1EBA  
                                        l450 1DB8                                          l451 1DA4  
                                        l444 1E34                                          l453 1DD6  
                                        l447 1D8E                                          l367 1EDC  
                                        l295 1E8E                                          l464 1EE0  
                                        l298 1EA6                                          l773 1880  
                                        u700 0FDA                                          u701 0FD6  
                                        u710 0FEA                                          u711 0FE6  
                                        u800 12AA                                          u720 1164  
                                        u640 0F20                                          u801 12A6  
                                        u641 0F1C                                          u810 12D8  
                                        u730 11BE                                          u650 0F32  
                                        u811 12D4                                          u731 11BA  
                                        u651 0F2E                                          u820 1312  
                                        u740 11DE                                          u660 0F42  
                                        u900 15DA                                          u821 130E  
                                        u741 11DA                                          u725 115A  
                                        u661 0F3E                                          u901 15D6  
                                        u750 11F0                                          u670 0F82  
                                        u830 1792                                          u910 15E8  
                                        u751 11EC                                          u671 0F7E  
                                        u831 178E                                          u911 15E4  
                                        u760 121E                                          u680 0F94  
                                        u840 17C6                                          u920 1644  
                                        u761 121A                                          u681 0F90  
                                        u921 1640                                          u770 1234  
                                        u690 0FA4                                          u850 17F4  
                                        u930 169A                                          u771 1230  
                                        u691 0FA0                                          u851 17F0  
                                        u931 1696                                          u780 1248  
                                        u860 1808                                          u940 16E4  
                                        u781 1244                                          u861 1804  
                                        u845 17BC                                          u941 16E0  
                                        u790 1262                                          u870 1830  
                                        u950 1702                                          u791 125E  
                                        u871 182C                                          u951 16FE  
                                        u880 1850                                          u960 1712  
                                        u881 184C                                          u961 170E  
                                        u890 1860                                          u970 1720  
                                        u891 185C                                          u971 171C  
                                        u980 175A                                          u981 1756  
                                        u990 1768                                          u991 1764  
                                        tosl 000FFD                                          wreg 000FE8  
                               ___flmul@aexp 0022                                 ___flmul@bexp 0023  
               ?_ADCC_SetADIInterruptHandler 0003                                 ___flmul@sign 001D  
                               ___flmul@temp 0028                                 ___flmul@prod 0024  
                               ___fltol@exp1 0033                                         l1100 1226  
                                       l2001 1DAC                                         l1107 12F0  
                                       l1131 161E                                         l2003 1E0C  
                                       l2011 1334                                         l2005 1E2C  
                                       l2101 158C                                         l2021 1374  
                                       l2013 1338                                         l1134 177A  
                                       l2103 1592                                         l2031 13B8  
                                       l2023 1384                                         l2015 133A  
                                       l1145 1712                                         l2105 1594  
                                       l2033 13BC                                         l2017 1340  
                                       l2009 1330                                         l1090 0FCA  
                                       l1138 16B6                                         l2107 1598  
                                       l2051 1442                                         l2043 13EA  
                                       l2035 13D2                                         l2019 1370  
                                       l2109 15AE                                         l2061 147A  
                                       l2045 1416                                         l2037 13E2  
                                       l2029 138C                                         l1094 132E  
                                       l2071 14AA                                         l2063 1490  
                                       l2047 141A                                         l1097 11C0  
                                       l2081 152A                                         l2073 14D6  
                                       l2065 14A2                                         l2057 144A  
                                       l2049 1430                                         l1099 1238  
                                       l2091 1556                                         l2083 153E  
                                       l2075 14DA                                         l2059 1476  
                                       l1701 1EBC                                         l2093 157C  
                                       l2077 14F4                                         l1711 1C70  
                                       l1703 1C44                                         l2095 1580  
                                       l2079 151E                                         l1801 105A  
                                       l1721 1CAE                                         l1713 1CA2  
                                       l1705 1C5C                                         l2097 1584  
                                       l2089 1546                                         l1811 109C  
                                       l1803 1066                                         l1731 1D1C  
                                       l1723 1CB0                                         l1715 1CA4  
                                       l1707 1C66                                         l2099 1586  
                                       l1821 10FE                                         l1813 10AC  
                                       l1805 1074                                         l1901 180C  
                                       l1733 1D20                                         l1725 1CB2  
                                       l1717 1CA6                                         l1709 1C68  
                                       l1741 1E36                                         l1831 11A6  
                                       l1823 111A                                         l1815 10C6  
                                       l1807 1080                                         l1751 0F12  
                                       l1911 1834                                         l1903 1816  
                                       l1735 1D22                                         l1727 1CB4  
                                       l1719 1CA8                                         l1743 1E54  
                                       l1841 11E2                                         l1833 11B0  
                                       l1825 1144                                         l1817 10D6  
                                       l1809 1090                                         l1761 0F52  
                                       l1753 0F20                                         l1913 1840  
                                       l1905 1820                                         l1729 1CCE  
                                       l1737 1EDE                                         l1745 1E56  
                                       l1851 1254                                         l1843 11F0  
                                       l1835 11BE                                         l1827 117A  
                                       l1819 10F2                                         l1771 0F82  
                                       l1763 0F58                                         l1755 0F22  
                                       l1915 1850                                         l1931 1644  
                                       l1923 15CA                                         l1747 1E90  
                                       l1739 1E5A                                         l1861 12BE  
                                       l1853 1262                                         l1845 121E  
                                       l1837 11D0                                         l1829 1188  
                                       l1781 0FBA                                         l1773 0F84  
                                       l1765 0F68                                         l1757 0F32  
                                       l1749 0F06                                         l1917 1860  
                                       l1941 169E                                         l1925 15DA  
                       _ADCC_StartConversion 1ECA                                         l1871 1314  
                                       l1863 12D8                                         l1855 128C  
                                       l1839 11DE                                         l1791 100A  
                                       l1783 0FDA                                         l1775 0F94  
                                       l1767 0F6E                                         l1759 0F42  
                                       l1919 1870                                         l1951 1702  
                                       l1943 16A0                                         l1935 1658  
                                       l1927 15E8                                         l1865 12F4  
                                       l1873 131A                                         l1849 1248  
                                       l1857 1290                                         l1793 1014  
                                       l1785 0FEA                                         l1777 0FA4  
                                       l1769 0F74                                         l1881 1792  
                                       l1961 175A                                         l1953 1720  
                                       l1945 16AC                                         l1937 1660  
                                       l1929 162E                                         l1971 1ED0  
                                       l1875 131E                                         l1867 1304  
                                       l1859 12AA                                         l1795 102A  
                                       l1779 0FB4                                         l1891 17E2  
                                       l1963 1768                                         l1955 1722  
                                       l1947 16E8                                         l1939 166C  
                                       l1973 1ED2                                         l1869 1312  
                                       l1797 1036                                         l1789 0FFE  
                                       l1893 17E6                                         l1885 17A6  
                                       l1965 176A                                         l1957 1726  
                                       l1949 16F4                                         l1981 1E7A  
                                       l1975 1EA8                                         l1799 104E  
                                       l1895 17F4                                         l1887 17D0  
                                       l1879 177C                                         l1959 174A  
                                       l1991 1ED8                                         l1983 1E7E  
                                       l1969 1ECC                                         l1889 17D2  
                                       l1993 1D34                                         l1985 1E82  
                                       l1995 1D86                                         l1987 1E86  
                                       l1979 1E76                                         l1989 1E8A  
                                       l1999 1D90                                         u1000 1DD6  
                                       u1001 1DD2                                         u1010 1352  
                                       u1011 134A                                         u1100 14F0  
                                       u1020 1366                                         u1101 14EC  
                                       u1021 135E                                         u1110 1506  
                                       u1030 1384                                         u1111 14FE  
                                       u1031 1380                                         u1120 1518  
                                       u1040 13D2                                         u1121 1512  
                                       u1041 13CE                                         u1130 15AE  
                                       u1050 13E2                                         u1018 1354  
                                       u1131 15AA                                         u1051 13DE  
                                       u1140 15C0                                         u1060 1430  
                                       u1028 1368                                         u1141 15BC  
                                       u1061 142C                                         u1126 151A  
                                       u1118 1508                                         u1070 1442  
                                       u1071 143E                                         u1080 1490  
                                       u1081 148C                                         u1090 14A2  
                                       u1091 149E                                         _LATA 000F83  
                                       _LATB 000F84                                         _LATC 000F85  
                                       _LATD 000F86                                         _LATE 000F87  
                                       _PMD0 000EE1                                         _PMD1 000EE2  
                                       _PMD2 000EE3                                         _PMD3 000EE4  
                                       _PMD4 000EE5                                         _PMD5 000EE6  
                                       _WPUA 000F10                                         _WPUB 000F18  
                                       _WPUC 000F20                                         _WPUD 000F25  
                                       _WPUE 000F2D                             __end_of_ADCC_ISR 1E0C  
                                       _main 1330                                         _sine 0200  
                                       fsr1h 000FE2                                         fsr2h 000FDA  
                                       fsr1l 000FE1                                         fsr2l 000FD9  
                                       btemp 0051                                         prodh 000FF4  
                                       prodl 000FF3                                         start 004E  
                               ___param_bank 000000                __end_of_OSCILLATOR_Initialize 1EA8  
                              ___fltol@sign1 0032                                        _ADACQ 000F5C  
                                      _ADCAP 000F5D                                        _ADACT 000F56  
                                      ?_main 0001                                        _ADCLK 000F57  
                                      _ADCNT 000F67                                        _ADPCH 000F5F  
                                      _ADREF 000F58                                        _ADPRE 000F5E  
                                      _ADRPT 000F66                              __end_of___flmul 1330  
                            __end_of___fltol 1882                                        i2l252 1E0A  
                                      i2l258 1EE2                                        i2l473 0042  
                                      _OSCEN 000EDC                                        _TRISA 000F88  
                                      _TRISB 000F89                                        _TRISC 000F8A  
                                      _TRISD 000F8B                                        _TRISE 000F8C  
                            __end_of_delayUS 1DD8                        ?_ADCC_StartConversion 0001  
                                      main@i 003B                                        main@j 003D  
                                      pclath 000FFA                                        pclatu 000FFB  
                                      tablat 000FF5                                        ttemp5 0052  
                                      ttemp6 0055                                        ttemp7 0059  
                                      status 000FD8                                        wtemp8 0052  
                            __initialization 1BA2                                 __end_of_main 15C8  
                           PeriodCalc@ADCVal 0034                  ?_INTERRUPT_InterruptManager 0001  
                                     ??_main 0038                                __activetblptr 000003  
                                     _ADACCH 000F71                                       _ADACCL 000F70  
                                     _ADCON0 000F60                                       _ADCON1 000F59  
                                     _ADCON2 000F5A                                       _ADCON3 000F5B  
                                 _PeriodCalc 1D34                                       _ADERRH 000F6F  
                                     _ADERRL 000F6E                                       _ADLTHH 000F6B  
                                     _ADLTHL 000F6A                                       _ADRESH 000F64  
                                     _ADRESL 000F63                                       _ADSTAT 000F65  
                                     _ADUTHH 000F6D                                       _ADUTHL 000F6C  
                                     _ANSELA 000F11                                       _ANSELB 000F19  
                                     _ANSELC 000F21                                       _ANSELD 000F26  
                                     _ANSELE 000F2E                                       _RC0PPS 000EF7  
                                     _RC1PPS 000EF8                                       _ODCONA 000F0F  
                                     _ODCONB 000F17                                       _ODCONC 000F1F  
                                     _ODCOND 000F24                                       _ODCONE 000F2C  
                                     i2l1431 1DF0                                       i2l1427 1DD8  
                                     i2l1429 1DDC                                       i2l1693 0012  
                                     i2l1695 0020                                       i2l1697 0030  
                                     i2l1699 003E                                       _INLVLA 000F0D  
                                     _INLVLB 000F15                                       _INLVLC 000F1D  
                                     _INLVLD 000F22                                       _INLVLE 000F2A  
                                     _OSCFRQ 000EDE                             __end_of___xxtofl 177C  
                 ??_ADCC_GetConversionResult 0005                                       _Period 0046  
                                  ??___flmul 0019                                    ??___fltol 002E  
                                     clear_0 1C28                                       clear_1 1C34  
                                  ??_delayUS 0007                                       isa$std 000001  
                                     _square 0400                                    ?_ADCC_ISR 0001  
                            _ADCC_Initialize 1CCE                               _PMD_Initialize 1E5A  
                               __mediumconst 0000                                       tblptrh 000FF7  
                                     tblptrl 000FF6                                       tblptru 000FF8  
                     ??_ADCC_StartConversion 0003  ADCC_SetADIInterruptHandler@InterruptHandler 0003  
                           ??_SPIConvertData 0005                                 ___xxtofl@arg 000D  
                               ___xxtofl@exp 000C                            _SYSTEM_Initialize 1E76  
                               ___xxtofl@val 0003                                   __accesstop 0060  
                    __end_of__initialization 1C3A                                  PeriodCalc@T 0036  
                         ?_SYSTEM_Initialize 0001                                ___rparam_used 000001  
                                 ___fltol@f1 002A                               __pcstackCOMRAM 0001  
                               __pidataBANK2 1882                                 __pidataBANK3 194A  
                               __pidataBANK4 1A12                                 __pidataBANK5 1ADA  
                        ??_SYSTEM_Initialize 0006                            ??_SPI1_Initialize 0003  
                     __end_of_PMD_Initialize 1E76                                   ??_ADCC_ISR 0001  
                         _spi1_configuration 0F01                  ADCC_StartConversion@channel 0003  
                                ?_PeriodCalc 0034                    __end_of_SYSTEM_Initialize 1E90  
                                 __pbssBANK1 0100                                   __pnvCOMRAM 004E  
                             _SPI1_WriteByte 1ED6                      __end_of_ADCC_Initialize 1D34  
                                    _ADFLTRH 000F73                                      _ADFLTRL 000F72  
                                    _ADPREVH 000F62                                      _ADPREVL 000F61  
                                    _ADSTPTH 000F69                                      _ADSTPTL 000F68  
                            ?_PMD_Initialize 0001                                    ?___xxtofl 0003  
                                    _OSCCON1 000ED8                                      _OSCCON3 000EDA  
                                    i2u37_40 1DF0                                      i2u61_40 0020  
                                    i2u37_41 1DEC                                      i2u61_41 001C  
                                    i2u62_40 0030                                      i2u62_41 002C  
                                    _OSCTUNE 000EDD                                      i2u38_48 1DF6  
                                    i2u63_40 003E                                      i2u38_49 1E0A  
                                    i2u63_41 003A                                      _SSP1ADD 000F93  
                                    _SLRCONA 000F0E                                      _SLRCONB 000F16  
                                    _SLRCONC 000F1E                                      _SLRCOND 000F23  
                                    _SLRCONE 000F2B                                      _SSP1BUF 000F92  
                                    _LUTData 0100                     SPIConvertData@DigiPacket 0007  
                         SPIConvertData@Data 0003                       __end_of_SPI1_WriteByte 1EDE  
                                  _ADCPeriod 0048                                      __Hparam 0000  
                                    __Lparam 0000                                      _OutData 004A  
                                    ___flmul 0F06                                      ___fltol 177C  
                               __psmallconst 0F00                                      __pcinit 1BA2  
                                    _delayUS 1D90                                      __ramtop 0F00  
                                    __ptext0 1330                                      __ptext1 1D90  
                                    __ptext2 1E76                                      __ptext3 1E36  
                                    __ptext4 1E5A                                      __ptext5 1C44  
                                    __ptext6 1E90                                      __ptext7 1EDE  
                                    __ptext8 1CCE                                      __ptext9 1EBC  
                      _OSCILLATOR_Initialize 1E90                                   ??___xxtofl 0007  
                   ??_PIN_MANAGER_Initialize 0003                         end_of_initialization 1C3A  
                            ?_SPI1_WriteByte 0001                                      postdec1 000FE5  
                                    postdec2 000FDD                                      postinc0 000FEE  
                                    postinc1 000FE6                                      postinc2 000FDE  
                           ?_ADCC_Initialize 0001                                    _PORTAbits 000F8D  
        __end_of_ADCC_SetADIInterruptHandler 1ECA                  _ADCC_SetADIInterruptHandler 1EBC  
                              ___xxtofl@sign 000B                                    _TRISCbits 000F8A  
                                ___flmul@grs 001E                ??_ADCC_SetADIInterruptHandler 0006  
                            _SPI1_Initialize 1E36                 __end_of_INTERRUPT_Initialize 1EE2  
             ??_ADCC_DefaultInterruptHandler 0001                       ?_OSCILLATOR_Initialize 0001  
                  ?_ADCC_GetConversionResult 0003                          start_initialization 1BA2  
                               ??_PeriodCalc 0036                             ??_PMD_Initialize 0003  
                                __pdataBANK2 0200                                  __pdataBANK3 0300  
                                __pdataBANK4 0400                                  __pdataBANK5 0500  
                         __end_of_PeriodCalc 1D90                                    ___flmul@a 0015  
                                  ___flmul@b 0011                                  __pbssCOMRAM 0046  
                    __end_of_SPI1_Initialize 1E5A                       _PIN_MANAGER_Initialize 1C44  
                                  __pintcode 0008                                     ?___flmul 0011  
                                   ?___fltol 002A                                     ?_delayUS 0003  
               ??_INTERRUPT_InterruptManager 0001                                     _ADCC_ISR 1DD8  
                                __smallconst 0F00                             ??_SPI1_WriteByte 0003  
                       _INTERRUPT_Initialize 1EDE                                     _LATBbits 000F84  
                                   _PIE1bits 000EC3                                     _PIR1bits 000ECB  
                                   _PIR3bits 000ECD                                     _SSP1CON1 000F96  
                                   _SSP1CON2 000F97                                     _SSP1STAT 000F95  
                                 _ADCON0bits 000F60                                   _ADCON1bits 000F59  
                                 _ADCON2bits 000F5A                                   _ADCON3bits 000F5B  
                                  main@j_745 003F                                    main@j_746 0041  
                                  main@j_747 0043                             ?_SPI1_Initialize 0001  
                                  copy_data0 1BB6                                    copy_data1 1BD6  
                                  copy_data2 1BF6                                    copy_data3 1C16  
                      ?_INTERRUPT_Initialize 0001                                 _OutDataLower 004C  
                               _OutDataUpper 004D                                   _ADSTATbits 000F65  
                                   __Hrparam 0000             __end_of_ADCC_GetConversionResult 1EBC  
                                   __Lrparam 0000                      ??_OSCILLATOR_Initialize 0003  
                                   ___xxtofl 15C8                                     __ptext10 1E0C  
                                   __ptext11 1ED6                                     __ptext20 1EE2  
                                   __ptext12 1D34                                     __ptext21 0000  
                                   __ptext13 15C8                                     __ptext14 177C  
                                   __ptext15 0F06                                     __ptext16 1ECA  
                                   __ptext17 1EA8                                     __ptext19 1DD8  
                               _SSP1CON1bits 000F96                                  delayUS@usec 0003  
                                   delayUS@i 0007                               _SPIConvertData 1E0C  
                  _ADCC_ADI_InterruptHandler 004E                                     isa$xinst 000000  
                                   _sawtooth 0500                 __end_of_ADCC_StartConversion 1ED6  
                                   int$flags 0051                                     _triangle 0300  
                           main@OutputSelect 0045           __end_of_INTERRUPT_InterruptManager 004E  
                 _INTERRUPT_InterruptManager 0008                                   _INTCONbits 000FF2  
                     ??_INTERRUPT_Initialize 0003         __end_of_ADCC_DefaultInterruptHandler 1EE4  
               _ADCC_DefaultInterruptHandler 1EE2                                     intlevel2 0000  
                              main@DIPValues 003A                      ?_PIN_MANAGER_Initialize 0001  
                     __end_of_SPIConvertData 1E36                     _ADCC_GetConversionResult 1EA8  
                                 _SSP1DATPPS 000EB8                                   _SSP1CLKPPS 000EB7  
             __end_of_PIN_MANAGER_Initialize 1CCE                            ??_ADCC_Initialize 0006  
            fp__ADCC_DefaultInterruptHandler 0000                ?_ADCC_DefaultInterruptHandler 0001  
                            ?_SPIConvertData 0003                   __end_of_spi1_configuration 0F05  
